

Microchip MPLAB XC8 Assembler V2.32 build 20210201212658 
                                                                                               Sat Nov 04 14:08:30 2023

Microchip MPLAB XC8 C Compiler v2.32 (Free license) build 20210201212658 Og1 
     1                           	processor	18F26K83
     2                           	fnconf	rparam,??,?,0
     3                           	pagewidth 120
     4                           	opt	flic
     5                           	psect	nvCOMRAM,global,class=COMRAM,space=1,delta=1,lowdata,noexec
     6                           	psect	cinit,global,reloc=2,class=CODE,delta=1
     7                           	psect	bssCOMRAM,global,class=COMRAM,space=1,delta=1,lowdata,noexec
     8                           	psect	cstackCOMRAM,global,class=COMRAM,space=1,delta=1,lowdata,noexec
     9                           	psect	text0,global,reloc=2,class=CODE,delta=1
    10                           	psect	text1,global,reloc=2,class=CODE,delta=1
    11                           	psect	text2,global,reloc=2,class=CODE,delta=1
    12                           	psect	text3,global,reloc=2,class=CODE,delta=1
    13                           	psect	text4,global,reloc=2,class=CODE,delta=1
    14                           	psect	text5,global,reloc=2,class=CODE,delta=1
    15                           	psect	text6,global,reloc=2,class=CODE,delta=1
    16                           	psect	text7,global,reloc=2,class=CODE,delta=1,group=1
    17                           	psect	text8,global,reloc=2,class=CODE,delta=1,group=1
    18                           	psect	text9,global,reloc=2,class=CODE,delta=1,group=1
    19                           	psect	text10,global,reloc=2,class=CODE,delta=1,group=1
    20                           	psect	text11,global,reloc=4,class=CODE,delta=1
    21                           	psect	ivt0x8,global,reloc=2,class=CODE,delta=1,noexec,keep,optim=
    22                           	psect	intsave_regs,global,class=BIGRAM,space=1,delta=1,noexec
    23                           	psect	rparam,global,class=COMRAM,space=1,delta=1,noexec
    24                           	psect	idloc,global,abs,ovrld,class=IDLOC,space=5,delta=1,noexec
    25                           	psect	config,global,abs,ovrld,class=CONFIG,space=4,delta=1,noexec
    26  0000                     
    27                           ; Version 2.20
    28                           ; Generated 05/05/2020 GMT
    29                           ; 
    30                           ; Copyright © 2020, Microchip Technology Inc. and its subsidiaries ("Microchip")
    31                           ; All rights reserved.
    32                           ; 
    33                           ; This software is developed by Microchip Technology Inc. and its subsidiaries ("Microch
      +                          ip").
    34                           ; 
    35                           ; Redistribution and use in source and binary forms, with or without modification, are
    36                           ; permitted provided that the following conditions are met:
    37                           ; 
    38                           ;     1. Redistributions of source code must retain the above copyright notice, this lis
      +                          t of
    39                           ;        conditions and the following disclaimer.
    40                           ; 
    41                           ;     2. Redistributions in binary form must reproduce the above copyright notice, this 
      +                          list
    42                           ;        of conditions and the following disclaimer in the documentation and/or other
    43                           ;        materials provided with the distribution.
    44                           ; 
    45                           ;     3. Microchip's name may not be used to endorse or promote products derived from th
      +                          is
    46                           ;        software without specific prior written permission.
    47                           ; 
    48                           ; THIS SOFTWARE IS PROVIDED BY MICROCHIP "AS IS" AND ANY EXPRESS OR IMPLIED WARRANTIES,
    49                           ; INCLUDING, BUT NOT LIMITED TO, THE IMPLIED WARRANTIES OF MERCHANTABILITY AND FITNESS F
      +                          OR
    50                           ; PURPOSE ARE DISCLAIMED.  IN NO EVENT SHALL MICROCHIP BE LIABLE FOR ANY DIRECT, INDIREC
      +                          T,
    51                           ; INCIDENTAL, SPECIAL, EXEMPLARY, OR CONSEQUENTIAL DAMAGES (INCLUDING BUT NOT LIMITED TO
    52                           ; PROCUREMENT OF SUBSTITUTE GOODS OR SERVICES; LOSS OF USE, DATA OR PROFITS; OR BUSINESS
    53                           ; INTERRUPTION) HOWSOEVER CAUSED AND ON ANY THEORY OF LIABILITY, WHETHER IN CONTRACT, ST
      +                          RICT
    54                           ; LIABILITY, OR TORT (INCLUDING NEGLIGENCE OR OTHERWISE) ARISING IN ANY WAY OUT OF THE U
      +                          SE OF
    55                           ; THIS SOFTWARE, EVEN IF ADVISED OF THE POSSIBILITY OF SUCH DAMAGE.
    56                           ; 
    57                           ; 
    58                           ; Code-generator required, PIC18F26K83 Definitions
    59                           ; 
    60                           ; SFR Addresses
    61  0000                     
    62                           	psect	nvCOMRAM
    63  00004F                     __pnvCOMRAM:
    64                           	callstack 0
    65  00004F                     _Temperature:
    66                           	callstack 0
    67  00004F                     	ds	4
    68  0000                     _PIE3bits	set	14739
    69  0000                     _IPR3bits	set	14723
    70  0000                     _PIR3bits	set	14755
    71  0000                     _ANSELAbits	set	14912
    72  0000                     _ADRESL	set	16111
    73  0000                     _ADRESH	set	16112
    74  0000                     _ADPCH	set	16113
    75  0000                     _ADCAP	set	16117
    76  0000                     _ADREFbits	set	16125
    77  0000                     _ADCPbits	set	16087
    78  0000                     _ADACT	set	16126
    79  0000                     _ADUTHH	set	16097
    80  0000                     _ADUTHL	set	16096
    81  0000                     _ADLTHL	set	16094
    82  0000                     _ADLTHH	set	16095
    83  0000                     _ADSTPTL	set	16100
    84  0000                     _ADSTPTH	set	16101
    85  0000                     _ADFLTRH	set	16103
    86  0000                     _ADCNT	set	16107
    87  0000                     _ADRPT	set	16108
    88  0000                     _ADCON3bits	set	16123
    89  0000                     _ADCON2bits	set	16122
    90  0000                     _ADCLKbits	set	16127
    91  0000                     _ADCON1bits	set	16121
    92  0000                     _ADACQHbits	set	16116
    93  0000                     _ADACQLbits	set	16115
    94  0000                     _ADPREHbits	set	16119
    95  0000                     _ADPRELbits	set	16118
    96  0000                     _ADCON0bits	set	16120
    97  0000                     _T0CON1bits	set	16313
    98  0000                     _TMR0H	set	16311
    99  0000                     _TMR0L	set	16310
   100  0000                     _T0CON0bits	set	16312
   101  0000                     _IVTBASEL	set	16341
   102  0000                     _IVTBASEH	set	16342
   103  0000                     _IVTBASEU	set	16343
   104  0000                     _INTCON0bits	set	16338
   105  0000                     _PORTBbits	set	16331
   106  0000                     _TRISBbits	set	16323
   107  0000                     _TRISAbits	set	16322
   108                           
   109                           ; #config settings
   110                           
   111                           	psect	cinit
   112  000DEE                     __pcinit:
   113                           	callstack 0
   114  000DEE                     start_initialization:
   115                           	callstack 0
   116  000DEE                     __initialization:
   117                           	callstack 0
   118                           
   119                           ; Clear objects allocated to COMRAM (6 bytes)
   120  000DEE  6A4E               	clrf	(__pbssCOMRAM+5)& (0+255),c
   121  000DF0  6A4D               	clrf	(__pbssCOMRAM+4)& (0+255),c
   122  000DF2  6A4C               	clrf	(__pbssCOMRAM+3)& (0+255),c
   123  000DF4  6A4B               	clrf	(__pbssCOMRAM+2)& (0+255),c
   124  000DF6  6A4A               	clrf	(__pbssCOMRAM+1)& (0+255),c
   125  000DF8  6A49               	clrf	__pbssCOMRAM& (0+255),c
   126                           
   127                           ;
   128                           ; Setup IVTBASE
   129                           ;
   130  000DFA  0E08               	movlw	(ivt0x8_base shr 0)& (0+255)
   131  000DFC  6ED5               	movwf	213,c
   132  000DFE  0E00               	movlw	(ivt0x8_base shr (0+8))& (0+255)
   133  000E00  6ED6               	movwf	214,c
   134  000E02  0E00               	movlw	(ivt0x8_base shr (0+16))& (0+255)
   135  000E04  6ED7               	movwf	215,c
   136  000E06                     end_of_initialization:
   137                           	callstack 0
   138  000E06                     __end_of__initialization:
   139                           	callstack 0
   140  000E06  0100               	movlb	0
   141  000E08  EFD6  F006         	goto	_main	;jump to C main() function
   142                           
   143                           	psect	bssCOMRAM
   144  000049                     __pbssCOMRAM:
   145                           	callstack 0
   146  000049                     _test_temp:
   147                           	callstack 0
   148  000049                     	ds	4
   149  00004D                     _test:
   150                           	callstack 0
   151  00004D                     	ds	1
   152  00004E                     _ui8Compteur:
   153                           	callstack 0
   154  00004E                     	ds	1
   155                           
   156                           	psect	cstackCOMRAM
   157  000001                     __pcstackCOMRAM:
   158                           	callstack 0
   159  000001                     ?___xxtofl:
   160                           	callstack 0
   161  000001                     ___xxtofl@val:
   162                           	callstack 0
   163                           
   164                           ; 4 bytes @ 0x0
   165  000001                     	ds	4
   166  000005                     ??___xxtofl:
   167                           
   168                           ; 1 bytes @ 0x4
   169  000005                     	ds	4
   170  000009                     ___xxtofl@sign:
   171                           	callstack 0
   172                           
   173                           ; 1 bytes @ 0x8
   174  000009                     	ds	1
   175  00000A                     ___xxtofl@exp:
   176                           	callstack 0
   177                           
   178                           ; 1 bytes @ 0x9
   179  00000A                     	ds	1
   180  00000B                     ___xxtofl@arg:
   181                           	callstack 0
   182                           
   183                           ; 4 bytes @ 0xA
   184  00000B                     	ds	4
   185  00000F                     ?___fldiv:
   186                           	callstack 0
   187  00000F                     ?___flmul:
   188                           	callstack 0
   189  00000F                     ___fldiv@b:
   190                           	callstack 0
   191  00000F                     ___flmul@b:
   192                           	callstack 0
   193                           
   194                           ; 4 bytes @ 0xE
   195  00000F                     	ds	4
   196  000013                     ___fldiv@a:
   197                           	callstack 0
   198  000013                     ___flmul@a:
   199                           	callstack 0
   200                           
   201                           ; 4 bytes @ 0x12
   202  000013                     	ds	4
   203  000017                     ??___fldiv:
   204  000017                     ??___flmul:
   205                           
   206                           ; 1 bytes @ 0x16
   207  000017                     	ds	4
   208  00001B                     ___flmul@sign:
   209                           	callstack 0
   210  00001B                     ___fldiv@rem:
   211                           	callstack 0
   212                           
   213                           ; 4 bytes @ 0x1A
   214  00001B                     	ds	1
   215  00001C                     ___flmul@grs:
   216                           	callstack 0
   217                           
   218                           ; 4 bytes @ 0x1B
   219  00001C                     	ds	3
   220  00001F                     ___fldiv@sign:
   221                           	callstack 0
   222                           
   223                           ; 1 bytes @ 0x1E
   224  00001F                     	ds	1
   225  000020                     ___flmul@aexp:
   226                           	callstack 0
   227  000020                     ___fldiv@new_exp:
   228                           	callstack 0
   229                           
   230                           ; 2 bytes @ 0x1F
   231  000020                     	ds	1
   232  000021                     ___flmul@bexp:
   233                           	callstack 0
   234                           
   235                           ; 1 bytes @ 0x20
   236  000021                     	ds	1
   237  000022                     ___fldiv@grs:
   238                           	callstack 0
   239  000022                     ___flmul@prod:
   240                           	callstack 0
   241                           
   242                           ; 4 bytes @ 0x21
   243  000022                     	ds	4
   244  000026                     ___fldiv@bexp:
   245                           	callstack 0
   246  000026                     ___flmul@temp:
   247                           	callstack 0
   248                           
   249                           ; 2 bytes @ 0x25
   250  000026                     	ds	1
   251  000027                     ___fldiv@aexp:
   252                           	callstack 0
   253                           
   254                           ; 1 bytes @ 0x26
   255  000027                     	ds	1
   256  000028                     ?___fltol:
   257                           	callstack 0
   258  000028                     ___fltol@f1:
   259                           	callstack 0
   260                           
   261                           ; 4 bytes @ 0x27
   262  000028                     	ds	4
   263  00002C                     ??___fltol:
   264                           
   265                           ; 1 bytes @ 0x2B
   266  00002C                     	ds	4
   267  000030                     ___fltol@sign1:
   268                           	callstack 0
   269                           
   270                           ; 1 bytes @ 0x2F
   271  000030                     	ds	1
   272  000031                     ___fltol@exp1:
   273                           	callstack 0
   274                           
   275                           ; 1 bytes @ 0x30
   276  000031                     	ds	1
   277  000032                     ?_Drv_Adc_Read_Temp_Ext:
   278                           	callstack 0
   279                           
   280                           ; 4 bytes @ 0x31
   281  000032                     	ds	4
   282  000036                     ??_Drv_Adc_Read_Temp_Ext:
   283                           
   284                           ; 1 bytes @ 0x35
   285  000036                     	ds	4
   286  00003A                     Drv_Adc_Read_Temp_Ext@l_temp_h:
   287                           	callstack 0
   288                           
   289                           ; 4 bytes @ 0x39
   290  00003A                     	ds	4
   291  00003E                     Drv_Adc_Read_Temp_Ext@l_temp_l:
   292                           	callstack 0
   293                           
   294                           ; 4 bytes @ 0x3D
   295  00003E                     	ds	4
   296  000042                     Drv_Adc_Read_Temp_Ext@l_adc_res_h:
   297                           	callstack 0
   298                           
   299                           ; 1 bytes @ 0x41
   300  000042                     	ds	1
   301  000043                     Drv_Adc_Read_Temp_Ext@l_adc_res_l:
   302                           	callstack 0
   303                           
   304                           ; 1 bytes @ 0x42
   305  000043                     	ds	1
   306  000044                     Drv_Adc_Read_Temp_Ext@l_counter:
   307                           	callstack 0
   308                           
   309                           ; 1 bytes @ 0x43
   310  000044                     	ds	1
   311  000045                     Drv_Adc_Read_Temp_Ext@l_result:
   312                           	callstack 0
   313                           
   314                           ; 4 bytes @ 0x44
   315  000045                     	ds	4
   316  000049                     
   317                           ; 1 bytes @ 0x48
   318 ;;
   319 ;;Main: autosize = 0, tempsize = 0, incstack = 0, save=0
   320 ;;
   321 ;; *************** function _main *****************
   322 ;; Defined at:
   323 ;;		line 29 in file "main.c"
   324 ;; Parameters:    Size  Location     Type
   325 ;;		None
   326 ;; Auto vars:     Size  Location     Type
   327 ;;		None
   328 ;; Return value:  Size  Location     Type
   329 ;;                  1    wreg      void 
   330 ;; Registers used:
   331 ;;		wreg, status,2, status,0, prodl, prodh, cstack
   332 ;; Tracked objects:
   333 ;;		On entry : 0/0
   334 ;;		On exit  : 0/0
   335 ;;		Unchanged: 0/0
   336 ;; Data sizes:     COMRAM   BANK0   BANK1   BANK2   BANK3   BANK4   BANK5   BANK6   BANK7   BANK8   BANK9  BANK10  BANK1
      +1  BANK12  BANK13  BANK14  BANK15
   337 ;;      Params:         0       0       0       0       0       0       0       0       0       0       0       0       
      +0       0       0       0       0
   338 ;;      Locals:         0       0       0       0       0       0       0       0       0       0       0       0       
      +0       0       0       0       0
   339 ;;      Temps:          0       0       0       0       0       0       0       0       0       0       0       0       
      +0       0       0       0       0
   340 ;;      Totals:         0       0       0       0       0       0       0       0       0       0       0       0       
      +0       0       0       0       0
   341 ;;Total ram usage:        0 bytes
   342 ;; Hardware stack levels required when called: 3
   343 ;; This function calls:
   344 ;;		_Drv_Adc_Read_Temp_Ext
   345 ;;		_InitSysteme
   346 ;;		_dtmf_InitInterrupt
   347 ;; This function is called by:
   348 ;;		Startup code after reset
   349 ;; This function uses a non-reentrant model
   350 ;;
   351                           
   352                           	psect	text0
   353  000DAC                     __ptext0:
   354                           	callstack 0
   355  000DAC                     _main:
   356                           	callstack 28
   357  000DAC                     
   358                           ;main.c: 31: InitSysteme();
   359  000DAC  EC11  F007         	call	_InitSysteme	;wreg free
   360  000DB0                     
   361                           ;main.c: 32: dtmf_InitInterrupt();
   362  000DB0  EC1F  F007         	call	_dtmf_InitInterrupt	;wreg free
   363                           
   364                           ;main.c: 34: Temperature = 3;
   365  000DB4  0E03               	movlw	3
   366  000DB6  6E4F               	movwf	_Temperature^0,c
   367  000DB8  0E00               	movlw	0
   368  000DBA  6E50               	movwf	(_Temperature+1)^0,c
   369  000DBC  0E00               	movlw	0
   370  000DBE  6E51               	movwf	(_Temperature+2)^0,c
   371  000DC0  0E00               	movlw	0
   372  000DC2  6E52               	movwf	(_Temperature+3)^0,c
   373  000DC4                     l1684:
   374                           
   375                           ;main.c: 36:     {;main.c: 37:        if (ui8Compteur % 2 == 0)
   376  000DC4  B04E               	btfsc	_ui8Compteur^0,0,c
   377  000DC6  EFE7  F006         	goto	u1251
   378  000DCA  EFE9  F006         	goto	u1250
   379  000DCE                     u1251:
   380  000DCE  EFE2  F006         	goto	l1684
   381  000DD2                     u1250:
   382  000DD2                     
   383                           ;main.c: 38:           {;main.c: 42:              test_temp = Drv_Adc_Read_Temp_Ext();
   384  000DD2  EC24  F005         	call	_Drv_Adc_Read_Temp_Ext	;wreg free
   385  000DD6  C032  F049         	movff	?_Drv_Adc_Read_Temp_Ext,_test_temp
   386  000DDA  C033  F04A         	movff	?_Drv_Adc_Read_Temp_Ext+1,_test_temp+1
   387  000DDE  C034  F04B         	movff	?_Drv_Adc_Read_Temp_Ext+2,_test_temp+2
   388  000DE2  C035  F04C         	movff	?_Drv_Adc_Read_Temp_Ext+3,_test_temp+3
   389                           
   390                           ;main.c: 43:           }
   391  000DE6  EFE2  F006         	goto	l1684
   392  000DEA  EF54  F000         	goto	start
   393  000DEE                     __end_of_main:
   394                           	callstack 0
   395                           
   396 ;; *************** function _dtmf_InitInterrupt *****************
   397 ;; Defined at:
   398 ;;		line 22 in file "dtmf.c"
   399 ;; Parameters:    Size  Location     Type
   400 ;;		None
   401 ;; Auto vars:     Size  Location     Type
   402 ;;		None
   403 ;; Return value:  Size  Location     Type
   404 ;;                  1    wreg      void 
   405 ;; Registers used:
   406 ;;		None
   407 ;; Tracked objects:
   408 ;;		On entry : 0/0
   409 ;;		On exit  : 0/0
   410 ;;		Unchanged: 0/0
   411 ;; Data sizes:     COMRAM   BANK0   BANK1   BANK2   BANK3   BANK4   BANK5   BANK6   BANK7   BANK8   BANK9  BANK10  BANK1
      +1  BANK12  BANK13  BANK14  BANK15
   412 ;;      Params:         0       0       0       0       0       0       0       0       0       0       0       0       
      +0       0       0       0       0
   413 ;;      Locals:         0       0       0       0       0       0       0       0       0       0       0       0       
      +0       0       0       0       0
   414 ;;      Temps:          0       0       0       0       0       0       0       0       0       0       0       0       
      +0       0       0       0       0
   415 ;;      Totals:         0       0       0       0       0       0       0       0       0       0       0       0       
      +0       0       0       0       0
   416 ;;Total ram usage:        0 bytes
   417 ;; Hardware stack levels used: 1
   418 ;; Hardware stack levels required when called: 1
   419 ;; This function calls:
   420 ;;		Nothing
   421 ;; This function is called by:
   422 ;;		_main
   423 ;; This function uses a non-reentrant model
   424 ;;
   425                           
   426                           	psect	text1
   427  000E3E                     __ptext1:
   428                           	callstack 0
   429  000E3E                     _dtmf_InitInterrupt:
   430                           	callstack 29
   431  000E3E  0012               	return		;funcret
   432  000E40                     __end_of_dtmf_InitInterrupt:
   433                           	callstack 0
   434                           
   435 ;; *************** function _InitSysteme *****************
   436 ;; Defined at:
   437 ;;		line 62 in file "main.c"
   438 ;; Parameters:    Size  Location     Type
   439 ;;		None
   440 ;; Auto vars:     Size  Location     Type
   441 ;;		None
   442 ;; Return value:  Size  Location     Type
   443 ;;                  1    wreg      void 
   444 ;; Registers used:
   445 ;;		wreg, status,2, cstack
   446 ;; Tracked objects:
   447 ;;		On entry : 0/0
   448 ;;		On exit  : 0/0
   449 ;;		Unchanged: 0/0
   450 ;; Data sizes:     COMRAM   BANK0   BANK1   BANK2   BANK3   BANK4   BANK5   BANK6   BANK7   BANK8   BANK9  BANK10  BANK1
      +1  BANK12  BANK13  BANK14  BANK15
   451 ;;      Params:         0       0       0       0       0       0       0       0       0       0       0       0       
      +0       0       0       0       0
   452 ;;      Locals:         0       0       0       0       0       0       0       0       0       0       0       0       
      +0       0       0       0       0
   453 ;;      Temps:          0       0       0       0       0       0       0       0       0       0       0       0       
      +0       0       0       0       0
   454 ;;      Totals:         0       0       0       0       0       0       0       0       0       0       0       0       
      +0       0       0       0       0
   455 ;;Total ram usage:        0 bytes
   456 ;; Hardware stack levels used: 1
   457 ;; Hardware stack levels required when called: 2
   458 ;; This function calls:
   459 ;;		_Drv_Adc_Configure
   460 ;;		_TMR0_Initialize
   461 ;;		_dtmf_Configure
   462 ;; This function is called by:
   463 ;;		_main
   464 ;; This function uses a non-reentrant model
   465 ;;
   466                           
   467                           	psect	text2
   468  000E22                     __ptext2:
   469                           	callstack 0
   470  000E22                     _InitSysteme:
   471                           	callstack 28
   472  000E22                     
   473                           ;main.c: 65: TRISBbits.TRISB4 = 0;
   474  000E22  98C3               	bcf	195,4,c	;volatile
   475                           
   476                           ;main.c: 66: TRISBbits.TRISB5 = 0;
   477  000E24  9AC3               	bcf	195,5,c	;volatile
   478  000E26                     
   479                           ;main.c: 71: TMR0_Initialize();
   480  000E26  ECB3  F006         	call	_TMR0_Initialize	;wreg free
   481                           
   482                           ;main.c: 72: Drv_Adc_Configure();
   483  000E2A  EC79  F006         	call	_Drv_Adc_Configure	;wreg free
   484  000E2E                     
   485                           ;main.c: 73: dtmf_Configure();
   486  000E2E  EC1A  F007         	call	_dtmf_Configure	;wreg free
   487  000E32  0012               	return		;funcret
   488  000E34                     __end_of_InitSysteme:
   489                           	callstack 0
   490                           
   491 ;; *************** function _dtmf_Configure *****************
   492 ;; Defined at:
   493 ;;		line 13 in file "dtmf.c"
   494 ;; Parameters:    Size  Location     Type
   495 ;;		None
   496 ;; Auto vars:     Size  Location     Type
   497 ;;		None
   498 ;; Return value:  Size  Location     Type
   499 ;;                  1    wreg      void 
   500 ;; Registers used:
   501 ;;		None
   502 ;; Tracked objects:
   503 ;;		On entry : 0/0
   504 ;;		On exit  : 0/0
   505 ;;		Unchanged: 0/0
   506 ;; Data sizes:     COMRAM   BANK0   BANK1   BANK2   BANK3   BANK4   BANK5   BANK6   BANK7   BANK8   BANK9  BANK10  BANK1
      +1  BANK12  BANK13  BANK14  BANK15
   507 ;;      Params:         0       0       0       0       0       0       0       0       0       0       0       0       
      +0       0       0       0       0
   508 ;;      Locals:         0       0       0       0       0       0       0       0       0       0       0       0       
      +0       0       0       0       0
   509 ;;      Temps:          0       0       0       0       0       0       0       0       0       0       0       0       
      +0       0       0       0       0
   510 ;;      Totals:         0       0       0       0       0       0       0       0       0       0       0       0       
      +0       0       0       0       0
   511 ;;Total ram usage:        0 bytes
   512 ;; Hardware stack levels used: 1
   513 ;; Hardware stack levels required when called: 1
   514 ;; This function calls:
   515 ;;		Nothing
   516 ;; This function is called by:
   517 ;;		_InitSysteme
   518 ;; This function uses a non-reentrant model
   519 ;;
   520                           
   521                           	psect	text3
   522  000E34                     __ptext3:
   523                           	callstack 0
   524  000E34                     _dtmf_Configure:
   525                           	callstack 28
   526  000E34                     
   527                           ;dtmf.c: 15: TRISBbits.TRISB0 = 1;
   528  000E34  80C3               	bsf	195,0,c	;volatile
   529                           
   530                           ;dtmf.c: 16: TRISBbits.TRISB1 = 1;
   531  000E36  82C3               	bsf	195,1,c	;volatile
   532                           
   533                           ;dtmf.c: 17: TRISBbits.TRISB2 = 1;
   534  000E38  84C3               	bsf	195,2,c	;volatile
   535                           
   536                           ;dtmf.c: 18: TRISBbits.TRISB3 = 1;
   537  000E3A  86C3               	bsf	195,3,c	;volatile
   538  000E3C  0012               	return		;funcret
   539  000E3E                     __end_of_dtmf_Configure:
   540                           	callstack 0
   541                           
   542 ;; *************** function _TMR0_Initialize *****************
   543 ;; Defined at:
   544 ;;		line 15 in file "timer0.c"
   545 ;; Parameters:    Size  Location     Type
   546 ;;		None
   547 ;; Auto vars:     Size  Location     Type
   548 ;;		None
   549 ;; Return value:  Size  Location     Type
   550 ;;                  1    wreg      void 
   551 ;; Registers used:
   552 ;;		wreg, status,2
   553 ;; Tracked objects:
   554 ;;		On entry : 0/0
   555 ;;		On exit  : 0/0
   556 ;;		Unchanged: 0/0
   557 ;; Data sizes:     COMRAM   BANK0   BANK1   BANK2   BANK3   BANK4   BANK5   BANK6   BANK7   BANK8   BANK9  BANK10  BANK1
      +1  BANK12  BANK13  BANK14  BANK15
   558 ;;      Params:         0       0       0       0       0       0       0       0       0       0       0       0       
      +0       0       0       0       0
   559 ;;      Locals:         0       0       0       0       0       0       0       0       0       0       0       0       
      +0       0       0       0       0
   560 ;;      Temps:          0       0       0       0       0       0       0       0       0       0       0       0       
      +0       0       0       0       0
   561 ;;      Totals:         0       0       0       0       0       0       0       0       0       0       0       0       
      +0       0       0       0       0
   562 ;;Total ram usage:        0 bytes
   563 ;; Hardware stack levels used: 1
   564 ;; Hardware stack levels required when called: 1
   565 ;; This function calls:
   566 ;;		Nothing
   567 ;; This function is called by:
   568 ;;		_InitSysteme
   569 ;; This function uses a non-reentrant model
   570 ;;
   571                           
   572                           	psect	text4
   573  000D66                     __ptext4:
   574                           	callstack 0
   575  000D66                     _TMR0_Initialize:
   576                           	callstack 28
   577  000D66                     
   578                           ;timer0.c: 18:  INTCON0bits.GIEH = 0;
   579  000D66  9ED2               	bcf	210,7,c	;volatile
   580                           
   581                           ;timer0.c: 19:     INTCON0bits.GIEL = 0;
   582  000D68  9CD2               	bcf	210,6,c	;volatile
   583                           
   584                           ;timer0.c: 20:     INTCON0bits.IPEN = 0;
   585  000D6A  9AD2               	bcf	210,5,c	;volatile
   586  000D6C                     
   587                           ;timer0.c: 21:     IVTBASEU = 0x00;
   588  000D6C  0E00               	movlw	0
   589  000D6E  6ED7               	movwf	215,c	;volatile
   590                           
   591                           ;timer0.c: 22:     IVTBASEH = 0x00;
   592  000D70  0E00               	movlw	0
   593  000D72  6ED6               	movwf	214,c	;volatile
   594                           
   595                           ;timer0.c: 23:     IVTBASEL = 0x08;
   596  000D74  0E08               	movlw	8
   597  000D76  6ED5               	movwf	213,c	;volatile
   598  000D78                     
   599                           ;timer0.c: 24:     INTCON0bits.GIEH = 1;
   600  000D78  8ED2               	bsf	210,7,c	;volatile
   601  000D7A                     
   602                           ;timer0.c: 25:     INTCON0bits.GIEL = 1;
   603  000D7A  8CD2               	bsf	210,6,c	;volatile
   604  000D7C                     
   605                           ;timer0.c: 26:     INTCON0bits.IPEN = 1;
   606  000D7C  8AD2               	bsf	210,5,c	;volatile
   607  000D7E                     
   608                           ;timer0.c: 29:     T0CON0bits.EN = 0;
   609  000D7E  9EB8               	bcf	184,7,c	;volatile
   610  000D80                     
   611                           ;timer0.c: 30:     T0CON0bits.MD16 = 1;
   612  000D80  88B8               	bsf	184,4,c	;volatile
   613                           
   614                           ;timer0.c: 31:     TMR0L = 0xF6;
   615  000D82  0EF6               	movlw	246
   616  000D84  6EB6               	movwf	182,c	;volatile
   617                           
   618                           ;timer0.c: 32:     TMR0H = 0xC2;
   619  000D86  0EC2               	movlw	194
   620  000D88  6EB7               	movwf	183,c	;volatile
   621                           
   622                           ;timer0.c: 34:     T0CON0bits.OUTPS = 0b0000;
   623  000D8A  0EF0               	movlw	-16
   624  000D8C  16B8               	andwf	184,f,c	;volatile
   625                           
   626                           ;timer0.c: 35:     T0CON1bits.CS = 0b010;
   627  000D8E  50B9               	movf	185,w,c	;volatile
   628  000D90  0B1F               	andlw	-225
   629  000D92  0940               	iorlw	64
   630  000D94  6EB9               	movwf	185,c	;volatile
   631  000D96                     
   632                           ;timer0.c: 36:     T0CON1bits.ASYNC = 1;
   633  000D96  88B9               	bsf	185,4,c	;volatile
   634                           
   635                           ;timer0.c: 37:     T0CON1bits.CKPS = 0b0111;
   636  000D98  50B9               	movf	185,w,c	;volatile
   637  000D9A  0BF0               	andlw	-16
   638  000D9C  0907               	iorlw	7
   639  000D9E  6EB9               	movwf	185,c	;volatile
   640  000DA0                     
   641                           ;timer0.c: 38:     PIR3bits.TMR0IF = 0;
   642  000DA0  0139               	movlb	57	; () banked
   643  000DA2  9FA3               	bcf	163,7,b	;volatile
   644  000DA4                     
   645                           ; BSR set to: 57
   646                           ;timer0.c: 39:     IPR3bits.TMR0IP = 0;
   647  000DA4  9F83               	bcf	131,7,b	;volatile
   648  000DA6                     
   649                           ; BSR set to: 57
   650                           ;timer0.c: 40:     PIE3bits.TMR0IE = 1;
   651  000DA6  8F93               	bsf	147,7,b	;volatile
   652  000DA8                     
   653                           ; BSR set to: 57
   654                           ;timer0.c: 41:     T0CON0bits.EN = 1;
   655  000DA8  8EB8               	bsf	184,7,c	;volatile
   656  000DAA                     
   657                           ; BSR set to: 57
   658  000DAA  0012               	return		;funcret
   659  000DAC                     __end_of_TMR0_Initialize:
   660                           	callstack 0
   661                           
   662 ;; *************** function _Drv_Adc_Configure *****************
   663 ;; Defined at:
   664 ;;		line 12 in file "Drv_Adc.c"
   665 ;; Parameters:    Size  Location     Type
   666 ;;		None
   667 ;; Auto vars:     Size  Location     Type
   668 ;;		None
   669 ;; Return value:  Size  Location     Type
   670 ;;                  1    wreg      void 
   671 ;; Registers used:
   672 ;;		wreg, status,2
   673 ;; Tracked objects:
   674 ;;		On entry : 0/0
   675 ;;		On exit  : 0/0
   676 ;;		Unchanged: 0/0
   677 ;; Data sizes:     COMRAM   BANK0   BANK1   BANK2   BANK3   BANK4   BANK5   BANK6   BANK7   BANK8   BANK9  BANK10  BANK1
      +1  BANK12  BANK13  BANK14  BANK15
   678 ;;      Params:         0       0       0       0       0       0       0       0       0       0       0       0       
      +0       0       0       0       0
   679 ;;      Locals:         0       0       0       0       0       0       0       0       0       0       0       0       
      +0       0       0       0       0
   680 ;;      Temps:          0       0       0       0       0       0       0       0       0       0       0       0       
      +0       0       0       0       0
   681 ;;      Totals:         0       0       0       0       0       0       0       0       0       0       0       0       
      +0       0       0       0       0
   682 ;;Total ram usage:        0 bytes
   683 ;; Hardware stack levels used: 1
   684 ;; Hardware stack levels required when called: 1
   685 ;; This function calls:
   686 ;;		Nothing
   687 ;; This function is called by:
   688 ;;		_InitSysteme
   689 ;; This function uses a non-reentrant model
   690 ;;
   691                           
   692                           	psect	text5
   693  000CF2                     __ptext5:
   694                           	callstack 0
   695  000CF2                     _Drv_Adc_Configure:
   696                           	callstack 28
   697  000CF2                     
   698                           ;Drv_Adc.c: 15:     ADCON0bits.ON = 0;
   699  000CF2  013E               	movlb	62	; () banked
   700  000CF4  9FF8               	bcf	248,7,b	;volatile
   701                           
   702                           ;Drv_Adc.c: 16:     ADCON0bits.CONT = 0;
   703  000CF6  9DF8               	bcf	248,6,b	;volatile
   704  000CF8                     
   705                           ; BSR set to: 62
   706                           ;Drv_Adc.c: 17:     ADCON0bits.FM = 1;
   707  000CF8  51F8               	movf	248,w,b	;volatile
   708  000CFA  0BF3               	andlw	-13
   709  000CFC  0904               	iorlw	4
   710  000CFE  6FF8               	movwf	248,b	;volatile
   711  000D00                     
   712                           ; BSR set to: 62
   713                           ;Drv_Adc.c: 18:     ADPRELbits.ADPRE = 0xFF;
   714  000D00  69F6               	setf	246,b	;volatile
   715                           
   716                           ;Drv_Adc.c: 19:     ADPREHbits.ADPRE = 0b0011;
   717  000D02  51F7               	movf	247,w,b	;volatile
   718  000D04  0BE0               	andlw	-32
   719  000D06  0903               	iorlw	3
   720  000D08  6FF7               	movwf	247,b	;volatile
   721  000D0A                     
   722                           ; BSR set to: 62
   723                           ;Drv_Adc.c: 20:     ADACQLbits.ADACQ = 0xFF;
   724  000D0A  69F3               	setf	243,b	;volatile
   725                           
   726                           ;Drv_Adc.c: 21:     ADACQHbits.ADACQ = 0b0111;
   727  000D0C  51F4               	movf	244,w,b	;volatile
   728  000D0E  0BE0               	andlw	-32
   729  000D10  0907               	iorlw	7
   730  000D12  6FF4               	movwf	244,b	;volatile
   731  000D14                     
   732                           ; BSR set to: 62
   733                           ;Drv_Adc.c: 22:     ADCON1bits.PPOL = 0b1;
   734  000D14  8FF9               	bsf	249,7,b	;volatile
   735  000D16                     
   736                           ; BSR set to: 62
   737                           ;Drv_Adc.c: 23:     ADCON1bits.DSEN = 0;
   738  000D16  91F9               	bcf	249,0,b	;volatile
   739  000D18                     
   740                           ; BSR set to: 62
   741                           ;Drv_Adc.c: 24:     ADCON0bits.CS = 0;
   742  000D18  99F8               	bcf	248,4,b	;volatile
   743                           
   744                           ;Drv_Adc.c: 25:     ADCLKbits.CS = 0b111111;
   745  000D1A  0E3F               	movlw	63
   746  000D1C  13FF               	iorwf	255,f,b	;volatile
   747  000D1E                     
   748                           ; BSR set to: 62
   749                           ;Drv_Adc.c: 26:     ADCON2bits.PSIS = 0b0;
   750  000D1E  9FFA               	bcf	250,7,b	;volatile
   751                           
   752                           ;Drv_Adc.c: 27:     ADCON2bits.MD = 0b000;
   753  000D20  0EF8               	movlw	-8
   754  000D22  17FA               	andwf	250,f,b	;volatile
   755                           
   756                           ;Drv_Adc.c: 28:     ADCON3bits.CALC = 0b000;
   757  000D24  0E8F               	movlw	-113
   758  000D26  17FB               	andwf	251,f,b	;volatile
   759                           
   760                           ;Drv_Adc.c: 29:     ADCON3bits.TMD = 0b000;
   761  000D28  0EF8               	movlw	-8
   762  000D2A  17FB               	andwf	251,f,b	;volatile
   763                           
   764                           ;Drv_Adc.c: 30:     ADRPT = 0x00;
   765  000D2C  0E00               	movlw	0
   766  000D2E  6FEC               	movwf	236,b	;volatile
   767                           
   768                           ;Drv_Adc.c: 31:     ADCNT = 0x00;
   769  000D30  0E00               	movlw	0
   770  000D32  6FEB               	movwf	235,b	;volatile
   771                           
   772                           ;Drv_Adc.c: 32:     ADFLTRH = 0x00;
   773  000D34  0E00               	movlw	0
   774  000D36  6FE7               	movwf	231,b	;volatile
   775                           
   776                           ;Drv_Adc.c: 33:     ADSTPTH = 0x00;
   777  000D38  0E00               	movlw	0
   778  000D3A  6FE5               	movwf	229,b	;volatile
   779                           
   780                           ;Drv_Adc.c: 34:     ADSTPTL = 0x00;
   781  000D3C  0E00               	movlw	0
   782  000D3E  6FE4               	movwf	228,b	;volatile
   783                           
   784                           ;Drv_Adc.c: 35:     ADLTHH = 0x00;
   785  000D40  0E00               	movlw	0
   786  000D42  6FDF               	movwf	223,b	;volatile
   787                           
   788                           ;Drv_Adc.c: 36:     ADLTHL = 0x00;
   789  000D44  0E00               	movlw	0
   790  000D46  6FDE               	movwf	222,b	;volatile
   791                           
   792                           ;Drv_Adc.c: 37:     ADUTHL = 0x00;
   793  000D48  0E00               	movlw	0
   794  000D4A  6FE0               	movwf	224,b	;volatile
   795                           
   796                           ;Drv_Adc.c: 38:     ADUTHH = 0x00;
   797  000D4C  0E00               	movlw	0
   798  000D4E  6FE1               	movwf	225,b	;volatile
   799                           
   800                           ;Drv_Adc.c: 39:     ADACT = 0b00000;
   801  000D50  0E00               	movlw	0
   802  000D52  6FFE               	movwf	254,b	;volatile
   803  000D54                     
   804                           ; BSR set to: 62
   805                           ;Drv_Adc.c: 40:     ADCPbits.CPON = 0b0;
   806  000D54  9FD7               	bcf	215,7,b	;volatile
   807                           
   808                           ;Drv_Adc.c: 41:     ADREFbits.NREF = 0b0;
   809  000D56  0E0F               	movlw	-241
   810  000D58  17FD               	andwf	253,f,b	;volatile
   811                           
   812                           ;Drv_Adc.c: 42:     ADREFbits.PREF = 0b00;
   813  000D5A  0EF0               	movlw	-16
   814  000D5C  17FD               	andwf	253,f,b	;volatile
   815                           
   816                           ;Drv_Adc.c: 43:     ADCAP = 0x00;
   817  000D5E  0E00               	movlw	0
   818  000D60  6FF5               	movwf	245,b	;volatile
   819  000D62                     
   820                           ; BSR set to: 62
   821                           ;Drv_Adc.c: 44:     ADCON0bits.ON = 1;
   822  000D62  8FF8               	bsf	248,7,b	;volatile
   823  000D64                     
   824                           ; BSR set to: 62
   825  000D64  0012               	return		;funcret
   826  000D66                     __end_of_Drv_Adc_Configure:
   827                           	callstack 0
   828                           
   829 ;; *************** function _Drv_Adc_Read_Temp_Ext *****************
   830 ;; Defined at:
   831 ;;		line 47 in file "Drv_Adc.c"
   832 ;; Parameters:    Size  Location     Type
   833 ;;		None
   834 ;; Auto vars:     Size  Location     Type
   835 ;;  l_result        4   68[COMRAM] unsigned long 
   836 ;;  l_temp_l        4   61[COMRAM] unsigned long 
   837 ;;  l_temp_h        4   57[COMRAM] unsigned long 
   838 ;;  l_counter       1   67[COMRAM] unsigned char 
   839 ;;  l_adc_res_l     1   66[COMRAM] unsigned char 
   840 ;;  l_adc_res_h     1   65[COMRAM] unsigned char 
   841 ;; Return value:  Size  Location     Type
   842 ;;                  4   49[COMRAM] unsigned long 
   843 ;; Registers used:
   844 ;;		wreg, status,2, status,0, prodl, prodh, cstack
   845 ;; Tracked objects:
   846 ;;		On entry : 0/0
   847 ;;		On exit  : 0/0
   848 ;;		Unchanged: 0/0
   849 ;; Data sizes:     COMRAM   BANK0   BANK1   BANK2   BANK3   BANK4   BANK5   BANK6   BANK7   BANK8   BANK9  BANK10  BANK1
      +1  BANK12  BANK13  BANK14  BANK15
   850 ;;      Params:         4       0       0       0       0       0       0       0       0       0       0       0       
      +0       0       0       0       0
   851 ;;      Locals:        15       0       0       0       0       0       0       0       0       0       0       0       
      +0       0       0       0       0
   852 ;;      Temps:          4       0       0       0       0       0       0       0       0       0       0       0       
      +0       0       0       0       0
   853 ;;      Totals:        23       0       0       0       0       0       0       0       0       0       0       0       
      +0       0       0       0       0
   854 ;;Total ram usage:       23 bytes
   855 ;; Hardware stack levels used: 1
   856 ;; Hardware stack levels required when called: 2
   857 ;; This function calls:
   858 ;;		___fldiv
   859 ;;		___flmul
   860 ;;		___fltol
   861 ;;		___xxtofl
   862 ;; This function is called by:
   863 ;;		_main
   864 ;; This function uses a non-reentrant model
   865 ;;
   866                           
   867                           	psect	text6
   868  000A48                     __ptext6:
   869                           	callstack 0
   870  000A48                     _Drv_Adc_Read_Temp_Ext:
   871                           	callstack 28
   872  000A48                     
   873                           ;Drv_Adc.c: 50:     Uint8_t l_adc_res_h = 0;
   874  000A48  0E00               	movlw	0
   875  000A4A  6E42               	movwf	Drv_Adc_Read_Temp_Ext@l_adc_res_h^0,c
   876                           
   877                           ;Drv_Adc.c: 51:     Uint8_t l_adc_res_l = 0;
   878  000A4C  0E00               	movlw	0
   879  000A4E  6E43               	movwf	Drv_Adc_Read_Temp_Ext@l_adc_res_l^0,c
   880                           
   881                           ;Drv_Adc.c: 52:     Uint32_t l_temp_h = 0;
   882  000A50  0E00               	movlw	0
   883  000A52  6E3A               	movwf	Drv_Adc_Read_Temp_Ext@l_temp_h^0,c
   884  000A54  0E00               	movlw	0
   885  000A56  6E3B               	movwf	(Drv_Adc_Read_Temp_Ext@l_temp_h+1)^0,c
   886  000A58  0E00               	movlw	0
   887  000A5A  6E3C               	movwf	(Drv_Adc_Read_Temp_Ext@l_temp_h+2)^0,c
   888  000A5C  0E00               	movlw	0
   889  000A5E  6E3D               	movwf	(Drv_Adc_Read_Temp_Ext@l_temp_h+3)^0,c
   890                           
   891                           ;Drv_Adc.c: 53:     Uint32_t l_temp_l = 0;
   892  000A60  0E00               	movlw	0
   893  000A62  6E3E               	movwf	Drv_Adc_Read_Temp_Ext@l_temp_l^0,c
   894  000A64  0E00               	movlw	0
   895  000A66  6E3F               	movwf	(Drv_Adc_Read_Temp_Ext@l_temp_l+1)^0,c
   896  000A68  0E00               	movlw	0
   897  000A6A  6E40               	movwf	(Drv_Adc_Read_Temp_Ext@l_temp_l+2)^0,c
   898  000A6C  0E00               	movlw	0
   899  000A6E  6E41               	movwf	(Drv_Adc_Read_Temp_Ext@l_temp_l+3)^0,c
   900                           
   901                           ;Drv_Adc.c: 54:     Uint32_t l_result = 0;
   902  000A70  0E00               	movlw	0
   903  000A72  6E45               	movwf	Drv_Adc_Read_Temp_Ext@l_result^0,c
   904  000A74  0E00               	movlw	0
   905  000A76  6E46               	movwf	(Drv_Adc_Read_Temp_Ext@l_result+1)^0,c
   906  000A78  0E00               	movlw	0
   907  000A7A  6E47               	movwf	(Drv_Adc_Read_Temp_Ext@l_result+2)^0,c
   908  000A7C  0E00               	movlw	0
   909  000A7E  6E48               	movwf	(Drv_Adc_Read_Temp_Ext@l_result+3)^0,c
   910  000A80                     
   911                           ;Drv_Adc.c: 62:     TRISAbits.TRISA1 = 1;
   912  000A80  82C2               	bsf	194,1,c	;volatile
   913  000A82                     
   914                           ;Drv_Adc.c: 63:     ANSELAbits.ANSELA1 = 1;
   915  000A82  013A               	movlb	58	; () banked
   916  000A84  8340               	bsf	64,1,b	;volatile
   917                           
   918                           ;Drv_Adc.c: 64:     ADPCH = 0b000001;
   919  000A86  0E01               	movlw	1
   920  000A88  013E               	movlb	62	; () banked
   921  000A8A  6FF1               	movwf	241,b	;volatile
   922  000A8C                     
   923                           ; BSR set to: 62
   924                           ;Drv_Adc.c: 65:     ADCON0bits.GO = 1;
   925  000A8C  81F8               	bsf	248,0,b	;volatile
   926                           
   927                           ;Drv_Adc.c: 68:     for (l_counter = 0; l_counter < 80; l_counter++)
   928  000A8E  0E00               	movlw	0
   929  000A90  6E44               	movwf	Drv_Adc_Read_Temp_Ext@l_counter^0,c
   930  000A92                     l60:
   931                           
   932                           ;Drv_Adc.c: 69:     {;Drv_Adc.c: 70:         l_adc_res_h = ADRESH;
   933  000A92  006F FBC0  F042    	movff	16112,Drv_Adc_Read_Temp_Ext@l_adc_res_h	;volatile
   934                           
   935                           ;Drv_Adc.c: 71:         l_adc_res_l = ADRESL;
   936  000A98  006F FBBC  F043    	movff	16111,Drv_Adc_Read_Temp_Ext@l_adc_res_l	;volatile
   937  000A9E                     
   938                           ;Drv_Adc.c: 72:         l_temp_h = ((Uint32_t) l_adc_res_h) << 8;
   939  000A9E  C042  F036         	movff	Drv_Adc_Read_Temp_Ext@l_adc_res_h,??_Drv_Adc_Read_Temp_Ext
   940  000AA2  6A37               	clrf	(??_Drv_Adc_Read_Temp_Ext+1)^0,c
   941  000AA4  6A38               	clrf	(??_Drv_Adc_Read_Temp_Ext+2)^0,c
   942  000AA6  6A39               	clrf	(??_Drv_Adc_Read_Temp_Ext+3)^0,c
   943  000AA8  C038  F039         	movff	??_Drv_Adc_Read_Temp_Ext+2,??_Drv_Adc_Read_Temp_Ext+3
   944  000AAC  C037  F038         	movff	??_Drv_Adc_Read_Temp_Ext+1,??_Drv_Adc_Read_Temp_Ext+2
   945  000AB0  C036  F037         	movff	??_Drv_Adc_Read_Temp_Ext,??_Drv_Adc_Read_Temp_Ext+1
   946  000AB4  6A36               	clrf	??_Drv_Adc_Read_Temp_Ext^0,c
   947  000AB6  C036  F03A         	movff	??_Drv_Adc_Read_Temp_Ext,Drv_Adc_Read_Temp_Ext@l_temp_h
   948  000ABA  C037  F03B         	movff	??_Drv_Adc_Read_Temp_Ext+1,Drv_Adc_Read_Temp_Ext@l_temp_h+1
   949  000ABE  C038  F03C         	movff	??_Drv_Adc_Read_Temp_Ext+2,Drv_Adc_Read_Temp_Ext@l_temp_h+2
   950  000AC2  C039  F03D         	movff	??_Drv_Adc_Read_Temp_Ext+3,Drv_Adc_Read_Temp_Ext@l_temp_h+3
   951  000AC6                     
   952                           ;Drv_Adc.c: 73:         l_temp_l = ((Uint32_t) l_adc_res_l);
   953  000AC6  5043               	movf	Drv_Adc_Read_Temp_Ext@l_adc_res_l^0,w,c
   954  000AC8  6E3E               	movwf	Drv_Adc_Read_Temp_Ext@l_temp_l^0,c
   955  000ACA  6A3F               	clrf	(Drv_Adc_Read_Temp_Ext@l_temp_l+1)^0,c
   956  000ACC  6A40               	clrf	(Drv_Adc_Read_Temp_Ext@l_temp_l+2)^0,c
   957  000ACE  6A41               	clrf	(Drv_Adc_Read_Temp_Ext@l_temp_l+3)^0,c
   958  000AD0                     
   959                           ;Drv_Adc.c: 74:         l_result = l_temp_h + l_temp_l;
   960  000AD0  503E               	movf	Drv_Adc_Read_Temp_Ext@l_temp_l^0,w,c
   961  000AD2  243A               	addwf	Drv_Adc_Read_Temp_Ext@l_temp_h^0,w,c
   962  000AD4  6E45               	movwf	Drv_Adc_Read_Temp_Ext@l_result^0,c
   963  000AD6  503F               	movf	(Drv_Adc_Read_Temp_Ext@l_temp_l+1)^0,w,c
   964  000AD8  203B               	addwfc	(Drv_Adc_Read_Temp_Ext@l_temp_h+1)^0,w,c
   965  000ADA  6E46               	movwf	(Drv_Adc_Read_Temp_Ext@l_result+1)^0,c
   966  000ADC  5040               	movf	(Drv_Adc_Read_Temp_Ext@l_temp_l+2)^0,w,c
   967  000ADE  203C               	addwfc	(Drv_Adc_Read_Temp_Ext@l_temp_h+2)^0,w,c
   968  000AE0  6E47               	movwf	(Drv_Adc_Read_Temp_Ext@l_result+2)^0,c
   969  000AE2  5041               	movf	(Drv_Adc_Read_Temp_Ext@l_temp_l+3)^0,w,c
   970  000AE4  203D               	addwfc	(Drv_Adc_Read_Temp_Ext@l_temp_h+3)^0,w,c
   971  000AE6  6E48               	movwf	(Drv_Adc_Read_Temp_Ext@l_result+3)^0,c
   972                           
   973                           ;Drv_Adc.c: 75:     }
   974  000AE8  2A44               	incf	Drv_Adc_Read_Temp_Ext@l_counter^0,f,c
   975  000AEA  0E4F               	movlw	79
   976  000AEC  6444               	cpfsgt	Drv_Adc_Read_Temp_Ext@l_counter^0,c
   977  000AEE  EF7B  F005         	goto	u1231
   978  000AF2  EF7D  F005         	goto	u1230
   979  000AF6                     u1231:
   980  000AF6  EF49  F005         	goto	l60
   981  000AFA                     u1230:
   982  000AFA                     
   983                           ;Drv_Adc.c: 79:     if (ADCON0bits.GO == 0) {
   984  000AFA  013E               	movlb	62	; () banked
   985  000AFC  B1F8               	btfsc	248,0,b	;volatile
   986  000AFE  EF83  F005         	goto	u1241
   987  000B02  EF85  F005         	goto	u1240
   988  000B06                     u1241:
   989  000B06  EFE5  F005         	goto	l1674
   990  000B0A                     u1240:
   991  000B0A                     
   992                           ; BSR set to: 62
   993                           ;Drv_Adc.c: 82:         l_result = l_result * 1.22;
   994  000B0A  0EF6               	movlw	246
   995  000B0C  6E13               	movwf	___flmul@a^0,c
   996  000B0E  0E28               	movlw	40
   997  000B10  6E14               	movwf	(___flmul@a+1)^0,c
   998  000B12  0E9C               	movlw	156
   999  000B14  6E15               	movwf	(___flmul@a+2)^0,c
  1000  000B16  0E3F               	movlw	63
  1001  000B18  6E16               	movwf	(___flmul@a+3)^0,c
  1002  000B1A  C045  F001         	movff	Drv_Adc_Read_Temp_Ext@l_result,___xxtofl@val
  1003  000B1E  C046  F002         	movff	Drv_Adc_Read_Temp_Ext@l_result+1,___xxtofl@val+1
  1004  000B22  C047  F003         	movff	Drv_Adc_Read_Temp_Ext@l_result+2,___xxtofl@val+2
  1005  000B26  C048  F004         	movff	Drv_Adc_Read_Temp_Ext@l_result+3,___xxtofl@val+3
  1006  000B2A  0E00               	movlw	0
  1007  000B2C  EC4A  F004         	call	___xxtofl
  1008  000B30  C001  F00F         	movff	?___xxtofl,___flmul@b
  1009  000B34  C002  F010         	movff	?___xxtofl+1,___flmul@b+1
  1010  000B38  C003  F011         	movff	?___xxtofl+2,___flmul@b+2
  1011  000B3C  C004  F012         	movff	?___xxtofl+3,___flmul@b+3
  1012  000B40  EC56  F000         	call	___flmul	;wreg free
  1013  000B44  C00F  F028         	movff	?___flmul,___fltol@f1
  1014  000B48  C010  F029         	movff	?___flmul+1,___fltol@f1+1
  1015  000B4C  C011  F02A         	movff	?___flmul+2,___fltol@f1+2
  1016  000B50  C012  F02B         	movff	?___flmul+3,___fltol@f1+3
  1017  000B54  ECF6  F005         	call	___fltol	;wreg free
  1018  000B58  C028  F045         	movff	?___fltol,Drv_Adc_Read_Temp_Ext@l_result
  1019  000B5C  C029  F046         	movff	?___fltol+1,Drv_Adc_Read_Temp_Ext@l_result+1
  1020  000B60  C02A  F047         	movff	?___fltol+2,Drv_Adc_Read_Temp_Ext@l_result+2
  1021  000B64  C02B  F048         	movff	?___fltol+3,Drv_Adc_Read_Temp_Ext@l_result+3
  1022  000B68                     
  1023                           ;Drv_Adc.c: 83:        l_result = l_result / 10.00;
  1024  000B68  0E00               	movlw	0
  1025  000B6A  6E13               	movwf	___fldiv@a^0,c
  1026  000B6C  0E00               	movlw	0
  1027  000B6E  6E14               	movwf	(___fldiv@a+1)^0,c
  1028  000B70  0E20               	movlw	32
  1029  000B72  6E15               	movwf	(___fldiv@a+2)^0,c
  1030  000B74  0E41               	movlw	65
  1031  000B76  6E16               	movwf	(___fldiv@a+3)^0,c
  1032  000B78  C045  F001         	movff	Drv_Adc_Read_Temp_Ext@l_result,___xxtofl@val
  1033  000B7C  C046  F002         	movff	Drv_Adc_Read_Temp_Ext@l_result+1,___xxtofl@val+1
  1034  000B80  C047  F003         	movff	Drv_Adc_Read_Temp_Ext@l_result+2,___xxtofl@val+2
  1035  000B84  C048  F004         	movff	Drv_Adc_Read_Temp_Ext@l_result+3,___xxtofl@val+3
  1036  000B88  0E00               	movlw	0
  1037  000B8A  EC4A  F004         	call	___xxtofl
  1038  000B8E  C001  F00F         	movff	?___xxtofl,___fldiv@b
  1039  000B92  C002  F010         	movff	?___xxtofl+1,___fldiv@b+1
  1040  000B96  C003  F011         	movff	?___xxtofl+2,___fldiv@b+2
  1041  000B9A  C004  F012         	movff	?___xxtofl+3,___fldiv@b+3
  1042  000B9E  EC7D  F002         	call	___fldiv	;wreg free
  1043  000BA2  C00F  F028         	movff	?___fldiv,___fltol@f1
  1044  000BA6  C010  F029         	movff	?___fldiv+1,___fltol@f1+1
  1045  000BAA  C011  F02A         	movff	?___fldiv+2,___fltol@f1+2
  1046  000BAE  C012  F02B         	movff	?___fldiv+3,___fltol@f1+3
  1047  000BB2  ECF6  F005         	call	___fltol	;wreg free
  1048  000BB6  C028  F045         	movff	?___fltol,Drv_Adc_Read_Temp_Ext@l_result
  1049  000BBA  C029  F046         	movff	?___fltol+1,Drv_Adc_Read_Temp_Ext@l_result+1
  1050  000BBE  C02A  F047         	movff	?___fltol+2,Drv_Adc_Read_Temp_Ext@l_result+2
  1051  000BC2  C02B  F048         	movff	?___fltol+3,Drv_Adc_Read_Temp_Ext@l_result+3
  1052                           
  1053                           ;Drv_Adc.c: 87:     } else {
  1054  000BC6  EFED  F005         	goto	l1676
  1055  000BCA                     l1674:
  1056                           
  1057                           ; BSR set to: 62
  1058                           ;Drv_Adc.c: 88:         l_result = 0;
  1059  000BCA  0E00               	movlw	0
  1060  000BCC  6E45               	movwf	Drv_Adc_Read_Temp_Ext@l_result^0,c
  1061  000BCE  0E00               	movlw	0
  1062  000BD0  6E46               	movwf	(Drv_Adc_Read_Temp_Ext@l_result+1)^0,c
  1063  000BD2  0E00               	movlw	0
  1064  000BD4  6E47               	movwf	(Drv_Adc_Read_Temp_Ext@l_result+2)^0,c
  1065  000BD6  0E00               	movlw	0
  1066  000BD8  6E48               	movwf	(Drv_Adc_Read_Temp_Ext@l_result+3)^0,c
  1067  000BDA                     l1676:
  1068                           
  1069                           ;Drv_Adc.c: 91:     return l_result;
  1070  000BDA  C045  F032         	movff	Drv_Adc_Read_Temp_Ext@l_result,?_Drv_Adc_Read_Temp_Ext
  1071  000BDE  C046  F033         	movff	Drv_Adc_Read_Temp_Ext@l_result+1,?_Drv_Adc_Read_Temp_Ext+1
  1072  000BE2  C047  F034         	movff	Drv_Adc_Read_Temp_Ext@l_result+2,?_Drv_Adc_Read_Temp_Ext+2
  1073  000BE6  C048  F035         	movff	Drv_Adc_Read_Temp_Ext@l_result+3,?_Drv_Adc_Read_Temp_Ext+3
  1074  000BEA  0012               	return		;funcret
  1075  000BEC                     __end_of_Drv_Adc_Read_Temp_Ext:
  1076                           	callstack 0
  1077                           
  1078 ;; *************** function ___xxtofl *****************
  1079 ;; Defined at:
  1080 ;;		line 10 in file "C:\Program Files\Microchip\xc8\v2.32\pic\sources\c99\common\xxtofl.c"
  1081 ;; Parameters:    Size  Location     Type
  1082 ;;  sign            1    wreg     unsigned char 
  1083 ;;  val             4    0[COMRAM] long 
  1084 ;; Auto vars:     Size  Location     Type
  1085 ;;  sign            1    8[COMRAM] unsigned char 
  1086 ;;  arg             4   10[COMRAM] unsigned long 
  1087 ;;  exp             1    9[COMRAM] unsigned char 
  1088 ;; Return value:  Size  Location     Type
  1089 ;;                  4    0[COMRAM] unsigned char 
  1090 ;; Registers used:
  1091 ;;		wreg, status,2, status,0
  1092 ;; Tracked objects:
  1093 ;;		On entry : 0/0
  1094 ;;		On exit  : 0/0
  1095 ;;		Unchanged: 0/0
  1096 ;; Data sizes:     COMRAM   BANK0   BANK1   BANK2   BANK3   BANK4   BANK5   BANK6   BANK7   BANK8   BANK9  BANK10  BANK1
      +1  BANK12  BANK13  BANK14  BANK15
  1097 ;;      Params:         4       0       0       0       0       0       0       0       0       0       0       0       
      +0       0       0       0       0
  1098 ;;      Locals:         6       0       0       0       0       0       0       0       0       0       0       0       
      +0       0       0       0       0
  1099 ;;      Temps:          4       0       0       0       0       0       0       0       0       0       0       0       
      +0       0       0       0       0
  1100 ;;      Totals:        14       0       0       0       0       0       0       0       0       0       0       0       
      +0       0       0       0       0
  1101 ;;Total ram usage:       14 bytes
  1102 ;; Hardware stack levels used: 1
  1103 ;; Hardware stack levels required when called: 1
  1104 ;; This function calls:
  1105 ;;		Nothing
  1106 ;; This function is called by:
  1107 ;;		_Drv_Adc_Read_Temp_Ext
  1108 ;; This function uses a non-reentrant model
  1109 ;;
  1110                           
  1111                           	psect	text7
  1112  000894                     __ptext7:
  1113                           	callstack 0
  1114  000894                     ___xxtofl:
  1115                           	callstack 28
  1116                           
  1117                           ;incstack = 0
  1118                           ;___xxtofl@sign stored from wreg
  1119  000894  6E09               	movwf	___xxtofl@sign^0,c
  1120  000896  5009               	movf	___xxtofl@sign^0,w,c
  1121  000898  B4D8               	btfsc	status,2,c
  1122  00089A  EF51  F004         	goto	u1131
  1123  00089E  EF53  F004         	goto	u1130
  1124  0008A2                     u1131:
  1125  0008A2  EF75  F004         	goto	l812
  1126  0008A6                     u1130:
  1127  0008A6  BE04               	btfsc	(___xxtofl@val+3)^0,7,c
  1128  0008A8  EF5A  F004         	goto	u1140
  1129  0008AC  EF58  F004         	goto	u1141
  1130  0008B0                     u1141:
  1131  0008B0  EF75  F004         	goto	l812
  1132  0008B4                     u1140:
  1133  0008B4  C001  F005         	movff	___xxtofl@val,??___xxtofl
  1134  0008B8  C002  F006         	movff	___xxtofl@val+1,??___xxtofl+1
  1135  0008BC  C003  F007         	movff	___xxtofl@val+2,??___xxtofl+2
  1136  0008C0  C004  F008         	movff	___xxtofl@val+3,??___xxtofl+3
  1137  0008C4  1E05               	comf	??___xxtofl^0,f,c
  1138  0008C6  1E06               	comf	(??___xxtofl+1)^0,f,c
  1139  0008C8  1E07               	comf	(??___xxtofl+2)^0,f,c
  1140  0008CA  1E08               	comf	(??___xxtofl+3)^0,f,c
  1141  0008CC  2A05               	incf	??___xxtofl^0,f,c
  1142  0008CE  0E00               	movlw	0
  1143  0008D0  2206               	addwfc	(??___xxtofl+1)^0,f,c
  1144  0008D2  2207               	addwfc	(??___xxtofl+2)^0,f,c
  1145  0008D4  2208               	addwfc	(??___xxtofl+3)^0,f,c
  1146  0008D6  C005  F00B         	movff	??___xxtofl,___xxtofl@arg
  1147  0008DA  C006  F00C         	movff	??___xxtofl+1,___xxtofl@arg+1
  1148  0008DE  C007  F00D         	movff	??___xxtofl+2,___xxtofl@arg+2
  1149  0008E2  C008  F00E         	movff	??___xxtofl+3,___xxtofl@arg+3
  1150  0008E6  EF7D  F004         	goto	l1610
  1151  0008EA                     l812:
  1152  0008EA  C001  F00B         	movff	___xxtofl@val,___xxtofl@arg
  1153  0008EE  C002  F00C         	movff	___xxtofl@val+1,___xxtofl@arg+1
  1154  0008F2  C003  F00D         	movff	___xxtofl@val+2,___xxtofl@arg+2
  1155  0008F6  C004  F00E         	movff	___xxtofl@val+3,___xxtofl@arg+3
  1156  0008FA                     l1610:
  1157  0008FA  5001               	movf	___xxtofl@val^0,w,c
  1158  0008FC  1002               	iorwf	(___xxtofl@val+1)^0,w,c
  1159  0008FE  1003               	iorwf	(___xxtofl@val+2)^0,w,c
  1160  000900  1004               	iorwf	(___xxtofl@val+3)^0,w,c
  1161  000902  A4D8               	btfss	status,2,c
  1162  000904  EF86  F004         	goto	u1151
  1163  000908  EF88  F004         	goto	u1150
  1164  00090C                     u1151:
  1165  00090C  EF92  F004         	goto	l1616
  1166  000910                     u1150:
  1167  000910  0E00               	movlw	0
  1168  000912  6E01               	movwf	?___xxtofl^0,c
  1169  000914  0E00               	movlw	0
  1170  000916  6E02               	movwf	(?___xxtofl+1)^0,c
  1171  000918  0E00               	movlw	0
  1172  00091A  6E03               	movwf	(?___xxtofl+2)^0,c
  1173  00091C  0E00               	movlw	0
  1174  00091E  6E04               	movwf	(?___xxtofl+3)^0,c
  1175  000920  EF23  F005         	goto	l815
  1176  000924                     l1616:
  1177  000924  0E96               	movlw	150
  1178  000926  6E0A               	movwf	___xxtofl@exp^0,c
  1179  000928  EF9C  F004         	goto	l1620
  1180  00092C                     l1618:
  1181  00092C  2A0A               	incf	___xxtofl@exp^0,f,c
  1182  00092E  90D8               	bcf	status,0,c
  1183  000930  320E               	rrcf	(___xxtofl@arg+3)^0,f,c
  1184  000932  320D               	rrcf	(___xxtofl@arg+2)^0,f,c
  1185  000934  320C               	rrcf	(___xxtofl@arg+1)^0,f,c
  1186  000936  320B               	rrcf	___xxtofl@arg^0,f,c
  1187  000938                     l1620:
  1188  000938  0E00               	movlw	0
  1189  00093A  140B               	andwf	___xxtofl@arg^0,w,c
  1190  00093C  6E05               	movwf	??___xxtofl^0,c
  1191  00093E  0E00               	movlw	0
  1192  000940  140C               	andwf	(___xxtofl@arg+1)^0,w,c
  1193  000942  6E06               	movwf	(??___xxtofl+1)^0,c
  1194  000944  0E00               	movlw	0
  1195  000946  140D               	andwf	(___xxtofl@arg+2)^0,w,c
  1196  000948  6E07               	movwf	(??___xxtofl+2)^0,c
  1197  00094A  0EFE               	movlw	254
  1198  00094C  140E               	andwf	(___xxtofl@arg+3)^0,w,c
  1199  00094E  6E08               	movwf	(??___xxtofl+3)^0,c
  1200  000950  5005               	movf	??___xxtofl^0,w,c
  1201  000952  1006               	iorwf	(??___xxtofl+1)^0,w,c
  1202  000954  1007               	iorwf	(??___xxtofl+2)^0,w,c
  1203  000956  1008               	iorwf	(??___xxtofl+3)^0,w,c
  1204  000958  A4D8               	btfss	status,2,c
  1205  00095A  EFB1  F004         	goto	u1161
  1206  00095E  EFB3  F004         	goto	u1160
  1207  000962                     u1161:
  1208  000962  EF96  F004         	goto	l1618
  1209  000966                     u1160:
  1210  000966  EFC1  F004         	goto	l819
  1211  00096A                     l1622:
  1212  00096A  2A0A               	incf	___xxtofl@exp^0,f,c
  1213  00096C  0E01               	movlw	1
  1214  00096E  260B               	addwf	___xxtofl@arg^0,f,c
  1215  000970  0E00               	movlw	0
  1216  000972  220C               	addwfc	(___xxtofl@arg+1)^0,f,c
  1217  000974  220D               	addwfc	(___xxtofl@arg+2)^0,f,c
  1218  000976  220E               	addwfc	(___xxtofl@arg+3)^0,f,c
  1219  000978  90D8               	bcf	status,0,c
  1220  00097A  320E               	rrcf	(___xxtofl@arg+3)^0,f,c
  1221  00097C  320D               	rrcf	(___xxtofl@arg+2)^0,f,c
  1222  00097E  320C               	rrcf	(___xxtofl@arg+1)^0,f,c
  1223  000980  320B               	rrcf	___xxtofl@arg^0,f,c
  1224  000982                     l819:
  1225  000982  0E00               	movlw	0
  1226  000984  140B               	andwf	___xxtofl@arg^0,w,c
  1227  000986  6E05               	movwf	??___xxtofl^0,c
  1228  000988  0E00               	movlw	0
  1229  00098A  140C               	andwf	(___xxtofl@arg+1)^0,w,c
  1230  00098C  6E06               	movwf	(??___xxtofl+1)^0,c
  1231  00098E  0E00               	movlw	0
  1232  000990  140D               	andwf	(___xxtofl@arg+2)^0,w,c
  1233  000992  6E07               	movwf	(??___xxtofl+2)^0,c
  1234  000994  0EFF               	movlw	255
  1235  000996  140E               	andwf	(___xxtofl@arg+3)^0,w,c
  1236  000998  6E08               	movwf	(??___xxtofl+3)^0,c
  1237  00099A  5005               	movf	??___xxtofl^0,w,c
  1238  00099C  1006               	iorwf	(??___xxtofl+1)^0,w,c
  1239  00099E  1007               	iorwf	(??___xxtofl+2)^0,w,c
  1240  0009A0  1008               	iorwf	(??___xxtofl+3)^0,w,c
  1241  0009A2  A4D8               	btfss	status,2,c
  1242  0009A4  EFD6  F004         	goto	u1171
  1243  0009A8  EFD8  F004         	goto	u1170
  1244  0009AC                     u1171:
  1245  0009AC  EFB5  F004         	goto	l1622
  1246  0009B0                     u1170:
  1247  0009B0  EFE0  F004         	goto	l1630
  1248  0009B4                     l1628:
  1249  0009B4  060A               	decf	___xxtofl@exp^0,f,c
  1250  0009B6  90D8               	bcf	status,0,c
  1251  0009B8  360B               	rlcf	___xxtofl@arg^0,f,c
  1252  0009BA  360C               	rlcf	(___xxtofl@arg+1)^0,f,c
  1253  0009BC  360D               	rlcf	(___xxtofl@arg+2)^0,f,c
  1254  0009BE  360E               	rlcf	(___xxtofl@arg+3)^0,f,c
  1255  0009C0                     l1630:
  1256  0009C0  BE0D               	btfsc	(___xxtofl@arg+2)^0,7,c
  1257  0009C2  EFE5  F004         	goto	u1181
  1258  0009C6  EFE7  F004         	goto	u1180
  1259  0009CA                     u1181:
  1260  0009CA  EFEF  F004         	goto	l826
  1261  0009CE                     u1180:
  1262  0009CE  0E02               	movlw	2
  1263  0009D0  600A               	cpfslt	___xxtofl@exp^0,c
  1264  0009D2  EFED  F004         	goto	u1191
  1265  0009D6  EFEF  F004         	goto	u1190
  1266  0009DA                     u1191:
  1267  0009DA  EFDA  F004         	goto	l1628
  1268  0009DE                     u1190:
  1269  0009DE                     l826:
  1270  0009DE  B00A               	btfsc	___xxtofl@exp^0,0,c
  1271  0009E0  EFF4  F004         	goto	u1201
  1272  0009E4  EFF6  F004         	goto	u1200
  1273  0009E8                     u1201:
  1274  0009E8  EFF7  F004         	goto	l1636
  1275  0009EC                     u1200:
  1276  0009EC  9E0D               	bcf	(___xxtofl@arg+2)^0,7,c
  1277  0009EE                     l1636:
  1278  0009EE  90D8               	bcf	status,0,c
  1279  0009F0  320A               	rrcf	___xxtofl@exp^0,f,c
  1280  0009F2  C00A  F005         	movff	___xxtofl@exp,??___xxtofl
  1281  0009F6  6A06               	clrf	(??___xxtofl+1)^0,c
  1282  0009F8  6A07               	clrf	(??___xxtofl+2)^0,c
  1283  0009FA  6A08               	clrf	(??___xxtofl+3)^0,c
  1284  0009FC  C005  F008         	movff	??___xxtofl,??___xxtofl+3
  1285  000A00  6A07               	clrf	(??___xxtofl+2)^0,c
  1286  000A02  6A06               	clrf	(??___xxtofl+1)^0,c
  1287  000A04  6A05               	clrf	??___xxtofl^0,c
  1288  000A06  5005               	movf	??___xxtofl^0,w,c
  1289  000A08  120B               	iorwf	___xxtofl@arg^0,f,c
  1290  000A0A  5006               	movf	(??___xxtofl+1)^0,w,c
  1291  000A0C  120C               	iorwf	(___xxtofl@arg+1)^0,f,c
  1292  000A0E  5007               	movf	(??___xxtofl+2)^0,w,c
  1293  000A10  120D               	iorwf	(___xxtofl@arg+2)^0,f,c
  1294  000A12  5008               	movf	(??___xxtofl+3)^0,w,c
  1295  000A14  120E               	iorwf	(___xxtofl@arg+3)^0,f,c
  1296  000A16  5009               	movf	___xxtofl@sign^0,w,c
  1297  000A18  B4D8               	btfsc	status,2,c
  1298  000A1A  EF11  F005         	goto	u1211
  1299  000A1E  EF13  F005         	goto	u1210
  1300  000A22                     u1211:
  1301  000A22  EF1B  F005         	goto	l1646
  1302  000A26                     u1210:
  1303  000A26  BE04               	btfsc	(___xxtofl@val+3)^0,7,c
  1304  000A28  EF1A  F005         	goto	u1220
  1305  000A2C  EF18  F005         	goto	u1221
  1306  000A30                     u1221:
  1307  000A30  EF1B  F005         	goto	l1646
  1308  000A34                     u1220:
  1309  000A34  8E0E               	bsf	(___xxtofl@arg+3)^0,7,c
  1310  000A36                     l1646:
  1311  000A36  C00B  F001         	movff	___xxtofl@arg,?___xxtofl
  1312  000A3A  C00C  F002         	movff	___xxtofl@arg+1,?___xxtofl+1
  1313  000A3E  C00D  F003         	movff	___xxtofl@arg+2,?___xxtofl+2
  1314  000A42  C00E  F004         	movff	___xxtofl@arg+3,?___xxtofl+3
  1315  000A46                     l815:
  1316  000A46  0012               	return		;funcret
  1317  000A48                     __end_of___xxtofl:
  1318                           	callstack 0
  1319                           
  1320 ;; *************** function ___fltol *****************
  1321 ;; Defined at:
  1322 ;;		line 43 in file "C:\Program Files\Microchip\xc8\v2.32\pic\sources\c99\common\fltol.c"
  1323 ;; Parameters:    Size  Location     Type
  1324 ;;  f1              4   39[COMRAM] unsigned char 
  1325 ;; Auto vars:     Size  Location     Type
  1326 ;;  exp1            1   48[COMRAM] unsigned char 
  1327 ;;  sign1           1   47[COMRAM] unsigned char 
  1328 ;; Return value:  Size  Location     Type
  1329 ;;                  4   39[COMRAM] long 
  1330 ;; Registers used:
  1331 ;;		wreg, status,2, status,0
  1332 ;; Tracked objects:
  1333 ;;		On entry : 0/0
  1334 ;;		On exit  : 0/0
  1335 ;;		Unchanged: 0/0
  1336 ;; Data sizes:     COMRAM   BANK0   BANK1   BANK2   BANK3   BANK4   BANK5   BANK6   BANK7   BANK8   BANK9  BANK10  BANK1
      +1  BANK12  BANK13  BANK14  BANK15
  1337 ;;      Params:         4       0       0       0       0       0       0       0       0       0       0       0       
      +0       0       0       0       0
  1338 ;;      Locals:         2       0       0       0       0       0       0       0       0       0       0       0       
      +0       0       0       0       0
  1339 ;;      Temps:          4       0       0       0       0       0       0       0       0       0       0       0       
      +0       0       0       0       0
  1340 ;;      Totals:        10       0       0       0       0       0       0       0       0       0       0       0       
      +0       0       0       0       0
  1341 ;;Total ram usage:       10 bytes
  1342 ;; Hardware stack levels used: 1
  1343 ;; Hardware stack levels required when called: 1
  1344 ;; This function calls:
  1345 ;;		Nothing
  1346 ;; This function is called by:
  1347 ;;		_Drv_Adc_Read_Temp_Ext
  1348 ;; This function uses a non-reentrant model
  1349 ;;
  1350                           
  1351                           	psect	text8
  1352  000BEC                     __ptext8:
  1353                           	callstack 0
  1354  000BEC                     ___fltol:
  1355                           	callstack 28
  1356  000BEC  342A               	rlcf	(___fltol@f1+2)^0,w,c
  1357  000BEE  342B               	rlcf	(___fltol@f1+3)^0,w,c
  1358  000BF0  6E31               	movwf	___fltol@exp1^0,c
  1359  000BF2  5031               	movf	___fltol@exp1^0,w,c
  1360  000BF4  A4D8               	btfss	status,2,c
  1361  000BF6  EFFF  F005         	goto	u1061
  1362  000BFA  EF01  F006         	goto	u1060
  1363  000BFE                     u1061:
  1364  000BFE  EF0B  F006         	goto	l1566
  1365  000C02                     u1060:
  1366  000C02                     l1562:
  1367  000C02  0E00               	movlw	0
  1368  000C04  6E28               	movwf	?___fltol^0,c
  1369  000C06  0E00               	movlw	0
  1370  000C08  6E29               	movwf	(?___fltol+1)^0,c
  1371  000C0A  0E00               	movlw	0
  1372  000C0C  6E2A               	movwf	(?___fltol+2)^0,c
  1373  000C0E  0E00               	movlw	0
  1374  000C10  6E2B               	movwf	(?___fltol+3)^0,c
  1375  000C12  EF78  F006         	goto	l454
  1376  000C16                     l1566:
  1377  000C16  C028  F02C         	movff	___fltol@f1,??___fltol
  1378  000C1A  C029  F02D         	movff	___fltol@f1+1,??___fltol+1
  1379  000C1E  C02A  F02E         	movff	___fltol@f1+2,??___fltol+2
  1380  000C22  C02B  F02F         	movff	___fltol@f1+3,??___fltol+3
  1381  000C26  0E20               	movlw	32
  1382  000C28  EF1B  F006         	goto	u1070
  1383  000C2C                     u1075:
  1384  000C2C  90D8               	bcf	status,0,c
  1385  000C2E  322F               	rrcf	(??___fltol+3)^0,f,c
  1386  000C30  322E               	rrcf	(??___fltol+2)^0,f,c
  1387  000C32  322D               	rrcf	(??___fltol+1)^0,f,c
  1388  000C34  322C               	rrcf	??___fltol^0,f,c
  1389  000C36                     u1070:
  1390  000C36  2EE8               	decfsz	wreg,f,c
  1391  000C38  EF16  F006         	goto	u1075
  1392  000C3C  502C               	movf	??___fltol^0,w,c
  1393  000C3E  6E30               	movwf	___fltol@sign1^0,c
  1394  000C40  8E2A               	bsf	(___fltol@f1+2)^0,7,c
  1395  000C42  0EFF               	movlw	255
  1396  000C44  1628               	andwf	___fltol@f1^0,f,c
  1397  000C46  0EFF               	movlw	255
  1398  000C48  1629               	andwf	(___fltol@f1+1)^0,f,c
  1399  000C4A  0EFF               	movlw	255
  1400  000C4C  162A               	andwf	(___fltol@f1+2)^0,f,c
  1401  000C4E  0E00               	movlw	0
  1402  000C50  162B               	andwf	(___fltol@f1+3)^0,f,c
  1403  000C52  0E96               	movlw	150
  1404  000C54  5E31               	subwf	___fltol@exp1^0,f,c
  1405  000C56  BE31               	btfsc	___fltol@exp1^0,7,c
  1406  000C58  EF32  F006         	goto	u1080
  1407  000C5C  EF30  F006         	goto	u1081
  1408  000C60                     u1081:
  1409  000C60  EF48  F006         	goto	l1586
  1410  000C64                     u1080:
  1411  000C64  5031               	movf	___fltol@exp1^0,w,c
  1412  000C66  0A80               	xorlw	128
  1413  000C68  0F97               	addlw	151
  1414  000C6A  B0D8               	btfsc	status,0,c
  1415  000C6C  EF3A  F006         	goto	u1091
  1416  000C70  EF3C  F006         	goto	u1090
  1417  000C74                     u1091:
  1418  000C74  EF3E  F006         	goto	l1582
  1419  000C78                     u1090:
  1420  000C78  EF01  F006         	goto	l1562
  1421  000C7C                     l1582:
  1422  000C7C  90D8               	bcf	status,0,c
  1423  000C7E  322B               	rrcf	(___fltol@f1+3)^0,f,c
  1424  000C80  322A               	rrcf	(___fltol@f1+2)^0,f,c
  1425  000C82  3229               	rrcf	(___fltol@f1+1)^0,f,c
  1426  000C84  3228               	rrcf	___fltol@f1^0,f,c
  1427  000C86  3E31               	incfsz	___fltol@exp1^0,f,c
  1428  000C88  EF3E  F006         	goto	l1582
  1429  000C8C  EF60  F006         	goto	l1596
  1430  000C90                     l1586:
  1431  000C90  0E1F               	movlw	31
  1432  000C92  6431               	cpfsgt	___fltol@exp1^0,c
  1433  000C94  EF4E  F006         	goto	u1101
  1434  000C98  EF50  F006         	goto	u1100
  1435  000C9C                     u1101:
  1436  000C9C  EF58  F006         	goto	l1594
  1437  000CA0                     u1100:
  1438  000CA0  EF01  F006         	goto	l1562
  1439  000CA4                     l1592:
  1440  000CA4  90D8               	bcf	status,0,c
  1441  000CA6  3628               	rlcf	___fltol@f1^0,f,c
  1442  000CA8  3629               	rlcf	(___fltol@f1+1)^0,f,c
  1443  000CAA  362A               	rlcf	(___fltol@f1+2)^0,f,c
  1444  000CAC  362B               	rlcf	(___fltol@f1+3)^0,f,c
  1445  000CAE  0631               	decf	___fltol@exp1^0,f,c
  1446  000CB0                     l1594:
  1447  000CB0  5031               	movf	___fltol@exp1^0,w,c
  1448  000CB2  A4D8               	btfss	status,2,c
  1449  000CB4  EF5E  F006         	goto	u1111
  1450  000CB8  EF60  F006         	goto	u1110
  1451  000CBC                     u1111:
  1452  000CBC  EF52  F006         	goto	l1592
  1453  000CC0                     u1110:
  1454  000CC0                     l1596:
  1455  000CC0  5030               	movf	___fltol@sign1^0,w,c
  1456  000CC2  B4D8               	btfsc	status,2,c
  1457  000CC4  EF66  F006         	goto	u1121
  1458  000CC8  EF68  F006         	goto	u1120
  1459  000CCC                     u1121:
  1460  000CCC  EF70  F006         	goto	l1600
  1461  000CD0                     u1120:
  1462  000CD0  1E2B               	comf	(___fltol@f1+3)^0,f,c
  1463  000CD2  1E2A               	comf	(___fltol@f1+2)^0,f,c
  1464  000CD4  1E29               	comf	(___fltol@f1+1)^0,f,c
  1465  000CD6  6C28               	negf	___fltol@f1^0,c
  1466  000CD8  0E00               	movlw	0
  1467  000CDA  2229               	addwfc	(___fltol@f1+1)^0,f,c
  1468  000CDC  222A               	addwfc	(___fltol@f1+2)^0,f,c
  1469  000CDE  222B               	addwfc	(___fltol@f1+3)^0,f,c
  1470  000CE0                     l1600:
  1471  000CE0  C028  F028         	movff	___fltol@f1,?___fltol
  1472  000CE4  C029  F029         	movff	___fltol@f1+1,?___fltol+1
  1473  000CE8  C02A  F02A         	movff	___fltol@f1+2,?___fltol+2
  1474  000CEC  C02B  F02B         	movff	___fltol@f1+3,?___fltol+3
  1475  000CF0                     l454:
  1476  000CF0  0012               	return		;funcret
  1477  000CF2                     __end_of___fltol:
  1478                           	callstack 0
  1479                           
  1480 ;; *************** function ___flmul *****************
  1481 ;; Defined at:
  1482 ;;		line 8 in file "C:\Program Files\Microchip\xc8\v2.32\pic\sources\c99\common\sprcmul.c"
  1483 ;; Parameters:    Size  Location     Type
  1484 ;;  b               4   14[COMRAM] long 
  1485 ;;  a               4   18[COMRAM] long 
  1486 ;; Auto vars:     Size  Location     Type
  1487 ;;  prod            4   33[COMRAM] struct .
  1488 ;;  grs             4   27[COMRAM] unsigned long 
  1489 ;;  temp            2   37[COMRAM] struct .
  1490 ;;  bexp            1   32[COMRAM] unsigned char 
  1491 ;;  aexp            1   31[COMRAM] unsigned char 
  1492 ;;  sign            1   26[COMRAM] unsigned char 
  1493 ;; Return value:  Size  Location     Type
  1494 ;;                  4   14[COMRAM] unsigned char 
  1495 ;; Registers used:
  1496 ;;		wreg, status,2, status,0, prodl, prodh
  1497 ;; Tracked objects:
  1498 ;;		On entry : 0/0
  1499 ;;		On exit  : 0/0
  1500 ;;		Unchanged: 0/0
  1501 ;; Data sizes:     COMRAM   BANK0   BANK1   BANK2   BANK3   BANK4   BANK5   BANK6   BANK7   BANK8   BANK9  BANK10  BANK1
      +1  BANK12  BANK13  BANK14  BANK15
  1502 ;;      Params:         8       0       0       0       0       0       0       0       0       0       0       0       
      +0       0       0       0       0
  1503 ;;      Locals:        13       0       0       0       0       0       0       0       0       0       0       0       
      +0       0       0       0       0
  1504 ;;      Temps:          4       0       0       0       0       0       0       0       0       0       0       0       
      +0       0       0       0       0
  1505 ;;      Totals:        25       0       0       0       0       0       0       0       0       0       0       0       
      +0       0       0       0       0
  1506 ;;Total ram usage:       25 bytes
  1507 ;; Hardware stack levels used: 1
  1508 ;; Hardware stack levels required when called: 1
  1509 ;; This function calls:
  1510 ;;		Nothing
  1511 ;; This function is called by:
  1512 ;;		_Drv_Adc_Read_Temp_Ext
  1513 ;; This function uses a non-reentrant model
  1514 ;;
  1515                           
  1516                           	psect	text9
  1517  0000AC                     __ptext9:
  1518                           	callstack 0
  1519  0000AC                     ___flmul:
  1520                           	callstack 28
  1521  0000AC  5012               	movf	(___flmul@b+3)^0,w,c
  1522  0000AE  0B80               	andlw	128
  1523  0000B0  6E1B               	movwf	___flmul@sign^0,c
  1524  0000B2  5012               	movf	(___flmul@b+3)^0,w,c
  1525  0000B4  2412               	addwf	(___flmul@b+3)^0,w,c
  1526  0000B6  6E21               	movwf	___flmul@bexp^0,c
  1527  0000B8  AE11               	btfss	(___flmul@b+2)^0,7,c
  1528  0000BA  EF61  F000         	goto	u871
  1529  0000BE  EF63  F000         	goto	u870
  1530  0000C2                     u871:
  1531  0000C2  EF64  F000         	goto	l1436
  1532  0000C6                     u870:
  1533  0000C6  8021               	bsf	___flmul@bexp^0,0,c
  1534  0000C8                     l1436:
  1535  0000C8  5021               	movf	___flmul@bexp^0,w,c
  1536  0000CA  B4D8               	btfsc	status,2,c
  1537  0000CC  EF6A  F000         	goto	u881
  1538  0000D0  EF6C  F000         	goto	u880
  1539  0000D4                     u881:
  1540  0000D4  EF7F  F000         	goto	l1444
  1541  0000D8                     u880:
  1542  0000D8  2821               	incf	___flmul@bexp^0,w,c
  1543  0000DA  A4D8               	btfss	status,2,c
  1544  0000DC  EF72  F000         	goto	u891
  1545  0000E0  EF74  F000         	goto	u890
  1546  0000E4                     u891:
  1547  0000E4  EF7C  F000         	goto	l1442
  1548  0000E8                     u890:
  1549  0000E8  0E00               	movlw	0
  1550  0000EA  6E0F               	movwf	___flmul@b^0,c
  1551  0000EC  0E00               	movlw	0
  1552  0000EE  6E10               	movwf	(___flmul@b+1)^0,c
  1553  0000F0  0E00               	movlw	0
  1554  0000F2  6E11               	movwf	(___flmul@b+2)^0,c
  1555  0000F4  0E00               	movlw	0
  1556  0000F6  6E12               	movwf	(___flmul@b+3)^0,c
  1557  0000F8                     l1442:
  1558  0000F8  8E11               	bsf	(___flmul@b+2)^0,7,c
  1559  0000FA  EF87  F000         	goto	l1446
  1560  0000FE                     l1444:
  1561  0000FE  0E00               	movlw	0
  1562  000100  6E0F               	movwf	___flmul@b^0,c
  1563  000102  0E00               	movlw	0
  1564  000104  6E10               	movwf	(___flmul@b+1)^0,c
  1565  000106  0E00               	movlw	0
  1566  000108  6E11               	movwf	(___flmul@b+2)^0,c
  1567  00010A  0E00               	movlw	0
  1568  00010C  6E12               	movwf	(___flmul@b+3)^0,c
  1569  00010E                     l1446:
  1570  00010E  5016               	movf	(___flmul@a+3)^0,w,c
  1571  000110  0B80               	andlw	128
  1572  000112  1A1B               	xorwf	___flmul@sign^0,f,c
  1573  000114  5016               	movf	(___flmul@a+3)^0,w,c
  1574  000116  2416               	addwf	(___flmul@a+3)^0,w,c
  1575  000118  6E20               	movwf	___flmul@aexp^0,c
  1576  00011A  AE15               	btfss	(___flmul@a+2)^0,7,c
  1577  00011C  EF92  F000         	goto	u901
  1578  000120  EF94  F000         	goto	u900
  1579  000124                     u901:
  1580  000124  EF95  F000         	goto	l1454
  1581  000128                     u900:
  1582  000128  8020               	bsf	___flmul@aexp^0,0,c
  1583  00012A                     l1454:
  1584  00012A  5020               	movf	___flmul@aexp^0,w,c
  1585  00012C  B4D8               	btfsc	status,2,c
  1586  00012E  EF9B  F000         	goto	u911
  1587  000132  EF9D  F000         	goto	u910
  1588  000136                     u911:
  1589  000136  EFB0  F000         	goto	l1462
  1590  00013A                     u910:
  1591  00013A  2820               	incf	___flmul@aexp^0,w,c
  1592  00013C  A4D8               	btfss	status,2,c
  1593  00013E  EFA3  F000         	goto	u921
  1594  000142  EFA5  F000         	goto	u920
  1595  000146                     u921:
  1596  000146  EFAD  F000         	goto	l1460
  1597  00014A                     u920:
  1598  00014A  0E00               	movlw	0
  1599  00014C  6E13               	movwf	___flmul@a^0,c
  1600  00014E  0E00               	movlw	0
  1601  000150  6E14               	movwf	(___flmul@a+1)^0,c
  1602  000152  0E00               	movlw	0
  1603  000154  6E15               	movwf	(___flmul@a+2)^0,c
  1604  000156  0E00               	movlw	0
  1605  000158  6E16               	movwf	(___flmul@a+3)^0,c
  1606  00015A                     l1460:
  1607  00015A  8E15               	bsf	(___flmul@a+2)^0,7,c
  1608  00015C  EFB8  F000         	goto	l771
  1609  000160                     l1462:
  1610  000160  0E00               	movlw	0
  1611  000162  6E13               	movwf	___flmul@a^0,c
  1612  000164  0E00               	movlw	0
  1613  000166  6E14               	movwf	(___flmul@a+1)^0,c
  1614  000168  0E00               	movlw	0
  1615  00016A  6E15               	movwf	(___flmul@a+2)^0,c
  1616  00016C  0E00               	movlw	0
  1617  00016E  6E16               	movwf	(___flmul@a+3)^0,c
  1618  000170                     l771:
  1619  000170  5020               	movf	___flmul@aexp^0,w,c
  1620  000172  B4D8               	btfsc	status,2,c
  1621  000174  EFBE  F000         	goto	u931
  1622  000178  EFC0  F000         	goto	u930
  1623  00017C                     u931:
  1624  00017C  EFC8  F000         	goto	l1466
  1625  000180                     u930:
  1626  000180  5021               	movf	___flmul@bexp^0,w,c
  1627  000182  A4D8               	btfss	status,2,c
  1628  000184  EFC6  F000         	goto	u941
  1629  000188  EFC8  F000         	goto	u940
  1630  00018C                     u941:
  1631  00018C  EFD2  F000         	goto	l1470
  1632  000190                     u940:
  1633  000190                     l1466:
  1634  000190  0E00               	movlw	0
  1635  000192  6E0F               	movwf	?___flmul^0,c
  1636  000194  0E00               	movlw	0
  1637  000196  6E10               	movwf	(?___flmul+1)^0,c
  1638  000198  0E00               	movlw	0
  1639  00019A  6E11               	movwf	(?___flmul+2)^0,c
  1640  00019C  0E00               	movlw	0
  1641  00019E  6E12               	movwf	(?___flmul+3)^0,c
  1642  0001A0  EF7C  F002         	goto	l775
  1643  0001A4                     l1470:
  1644  0001A4  5015               	movf	(___flmul@a+2)^0,w,c
  1645  0001A6  020F               	mulwf	___flmul@b^0,c
  1646  0001A8  006F FFCC  F026    	movff	prodl,___flmul@temp
  1647  0001AE  006F FFD0  F027    	movff	prodh,___flmul@temp+1
  1648  0001B4  5026               	movf	___flmul@temp^0,w,c
  1649  0001B6  6E1C               	movwf	___flmul@grs^0,c
  1650  0001B8  6A1D               	clrf	(___flmul@grs+1)^0,c
  1651  0001BA  6A1E               	clrf	(___flmul@grs+2)^0,c
  1652  0001BC  6A1F               	clrf	(___flmul@grs+3)^0,c
  1653  0001BE  5027               	movf	(___flmul@temp+1)^0,w,c
  1654  0001C0  6E22               	movwf	___flmul@prod^0,c
  1655  0001C2  6A23               	clrf	(___flmul@prod+1)^0,c
  1656  0001C4  6A24               	clrf	(___flmul@prod+2)^0,c
  1657  0001C6  6A25               	clrf	(___flmul@prod+3)^0,c
  1658  0001C8  5014               	movf	(___flmul@a+1)^0,w,c
  1659  0001CA  0210               	mulwf	(___flmul@b+1)^0,c
  1660  0001CC  006F FFCC  F026    	movff	prodl,___flmul@temp
  1661  0001D2  006F FFD0  F027    	movff	prodh,___flmul@temp+1
  1662  0001D8  5026               	movf	___flmul@temp^0,w,c
  1663  0001DA  261C               	addwf	___flmul@grs^0,f,c
  1664  0001DC  0E00               	movlw	0
  1665  0001DE  221D               	addwfc	(___flmul@grs+1)^0,f,c
  1666  0001E0  221E               	addwfc	(___flmul@grs+2)^0,f,c
  1667  0001E2  221F               	addwfc	(___flmul@grs+3)^0,f,c
  1668  0001E4  5027               	movf	(___flmul@temp+1)^0,w,c
  1669  0001E6  2622               	addwf	___flmul@prod^0,f,c
  1670  0001E8  0E00               	movlw	0
  1671  0001EA  2223               	addwfc	(___flmul@prod+1)^0,f,c
  1672  0001EC  2224               	addwfc	(___flmul@prod+2)^0,f,c
  1673  0001EE  2225               	addwfc	(___flmul@prod+3)^0,f,c
  1674  0001F0  5013               	movf	___flmul@a^0,w,c
  1675  0001F2  0211               	mulwf	(___flmul@b+2)^0,c
  1676  0001F4  006F FFCC  F026    	movff	prodl,___flmul@temp
  1677  0001FA  006F FFD0  F027    	movff	prodh,___flmul@temp+1
  1678  000200  5026               	movf	___flmul@temp^0,w,c
  1679  000202  261C               	addwf	___flmul@grs^0,f,c
  1680  000204  0E00               	movlw	0
  1681  000206  221D               	addwfc	(___flmul@grs+1)^0,f,c
  1682  000208  221E               	addwfc	(___flmul@grs+2)^0,f,c
  1683  00020A  221F               	addwfc	(___flmul@grs+3)^0,f,c
  1684  00020C  5027               	movf	(___flmul@temp+1)^0,w,c
  1685  00020E  2622               	addwf	___flmul@prod^0,f,c
  1686  000210  0E00               	movlw	0
  1687  000212  2223               	addwfc	(___flmul@prod+1)^0,f,c
  1688  000214  2224               	addwfc	(___flmul@prod+2)^0,f,c
  1689  000216  2225               	addwfc	(___flmul@prod+3)^0,f,c
  1690  000218  C01E  F01F         	movff	___flmul@grs+2,___flmul@grs+3
  1691  00021C  C01D  F01E         	movff	___flmul@grs+1,___flmul@grs+2
  1692  000220  C01C  F01D         	movff	___flmul@grs,___flmul@grs+1
  1693  000224  6A1C               	clrf	___flmul@grs^0,c
  1694  000226  5013               	movf	___flmul@a^0,w,c
  1695  000228  0210               	mulwf	(___flmul@b+1)^0,c
  1696  00022A  006F FFCC  F026    	movff	prodl,___flmul@temp
  1697  000230  006F FFD0  F027    	movff	prodh,___flmul@temp+1
  1698  000236  5026               	movf	___flmul@temp^0,w,c
  1699  000238  261C               	addwf	___flmul@grs^0,f,c
  1700  00023A  5027               	movf	(___flmul@temp+1)^0,w,c
  1701  00023C  221D               	addwfc	(___flmul@grs+1)^0,f,c
  1702  00023E  0E00               	movlw	0
  1703  000240  221E               	addwfc	(___flmul@grs+2)^0,f,c
  1704  000242  0E00               	movlw	0
  1705  000244  221F               	addwfc	(___flmul@grs+3)^0,f,c
  1706  000246  5014               	movf	(___flmul@a+1)^0,w,c
  1707  000248  020F               	mulwf	___flmul@b^0,c
  1708  00024A  006F FFCC  F026    	movff	prodl,___flmul@temp
  1709  000250  006F FFD0  F027    	movff	prodh,___flmul@temp+1
  1710  000256  5026               	movf	___flmul@temp^0,w,c
  1711  000258  261C               	addwf	___flmul@grs^0,f,c
  1712  00025A  5027               	movf	(___flmul@temp+1)^0,w,c
  1713  00025C  221D               	addwfc	(___flmul@grs+1)^0,f,c
  1714  00025E  0E00               	movlw	0
  1715  000260  221E               	addwfc	(___flmul@grs+2)^0,f,c
  1716  000262  0E00               	movlw	0
  1717  000264  221F               	addwfc	(___flmul@grs+3)^0,f,c
  1718  000266  C01E  F01F         	movff	___flmul@grs+2,___flmul@grs+3
  1719  00026A  C01D  F01E         	movff	___flmul@grs+1,___flmul@grs+2
  1720  00026E  C01C  F01D         	movff	___flmul@grs,___flmul@grs+1
  1721  000272  6A1C               	clrf	___flmul@grs^0,c
  1722  000274  5013               	movf	___flmul@a^0,w,c
  1723  000276  020F               	mulwf	___flmul@b^0,c
  1724  000278  006F FFCC  F026    	movff	prodl,___flmul@temp
  1725  00027E  006F FFD0  F027    	movff	prodh,___flmul@temp+1
  1726  000284  5026               	movf	___flmul@temp^0,w,c
  1727  000286  261C               	addwf	___flmul@grs^0,f,c
  1728  000288  5027               	movf	(___flmul@temp+1)^0,w,c
  1729  00028A  221D               	addwfc	(___flmul@grs+1)^0,f,c
  1730  00028C  0E00               	movlw	0
  1731  00028E  221E               	addwfc	(___flmul@grs+2)^0,f,c
  1732  000290  0E00               	movlw	0
  1733  000292  221F               	addwfc	(___flmul@grs+3)^0,f,c
  1734  000294  5015               	movf	(___flmul@a+2)^0,w,c
  1735  000296  0210               	mulwf	(___flmul@b+1)^0,c
  1736  000298  006F FFCC  F026    	movff	prodl,___flmul@temp
  1737  00029E  006F FFD0  F027    	movff	prodh,___flmul@temp+1
  1738  0002A4  5026               	movf	___flmul@temp^0,w,c
  1739  0002A6  2622               	addwf	___flmul@prod^0,f,c
  1740  0002A8  5027               	movf	(___flmul@temp+1)^0,w,c
  1741  0002AA  2223               	addwfc	(___flmul@prod+1)^0,f,c
  1742  0002AC  0E00               	movlw	0
  1743  0002AE  2224               	addwfc	(___flmul@prod+2)^0,f,c
  1744  0002B0  0E00               	movlw	0
  1745  0002B2  2225               	addwfc	(___flmul@prod+3)^0,f,c
  1746  0002B4  5014               	movf	(___flmul@a+1)^0,w,c
  1747  0002B6  0211               	mulwf	(___flmul@b+2)^0,c
  1748  0002B8  006F FFCC  F026    	movff	prodl,___flmul@temp
  1749  0002BE  006F FFD0  F027    	movff	prodh,___flmul@temp+1
  1750  0002C4  5026               	movf	___flmul@temp^0,w,c
  1751  0002C6  2622               	addwf	___flmul@prod^0,f,c
  1752  0002C8  5027               	movf	(___flmul@temp+1)^0,w,c
  1753  0002CA  2223               	addwfc	(___flmul@prod+1)^0,f,c
  1754  0002CC  0E00               	movlw	0
  1755  0002CE  2224               	addwfc	(___flmul@prod+2)^0,f,c
  1756  0002D0  0E00               	movlw	0
  1757  0002D2  2225               	addwfc	(___flmul@prod+3)^0,f,c
  1758  0002D4  5015               	movf	(___flmul@a+2)^0,w,c
  1759  0002D6  0211               	mulwf	(___flmul@b+2)^0,c
  1760  0002D8  006F FFCC  F026    	movff	prodl,___flmul@temp
  1761  0002DE  006F FFD0  F027    	movff	prodh,___flmul@temp+1
  1762  0002E4  5026               	movf	___flmul@temp^0,w,c
  1763  0002E6  6E17               	movwf	??___flmul^0,c
  1764  0002E8  5027               	movf	(___flmul@temp+1)^0,w,c
  1765  0002EA  6E18               	movwf	(??___flmul+1)^0,c
  1766  0002EC  6A19               	clrf	(??___flmul+2)^0,c
  1767  0002EE  6A1A               	clrf	(??___flmul+3)^0,c
  1768  0002F0  C019  F01A         	movff	??___flmul+2,??___flmul+3
  1769  0002F4  C018  F019         	movff	??___flmul+1,??___flmul+2
  1770  0002F8  C017  F018         	movff	??___flmul,??___flmul+1
  1771  0002FC  6A17               	clrf	??___flmul^0,c
  1772  0002FE  5017               	movf	??___flmul^0,w,c
  1773  000300  2622               	addwf	___flmul@prod^0,f,c
  1774  000302  5018               	movf	(??___flmul+1)^0,w,c
  1775  000304  2223               	addwfc	(___flmul@prod+1)^0,f,c
  1776  000306  5019               	movf	(??___flmul+2)^0,w,c
  1777  000308  2224               	addwfc	(___flmul@prod+2)^0,f,c
  1778  00030A  501A               	movf	(??___flmul+3)^0,w,c
  1779  00030C  2225               	addwfc	(___flmul@prod+3)^0,f,c
  1780  00030E  C01C  F017         	movff	___flmul@grs,??___flmul
  1781  000312  C01D  F018         	movff	___flmul@grs+1,??___flmul+1
  1782  000316  C01E  F019         	movff	___flmul@grs+2,??___flmul+2
  1783  00031A  C01F  F01A         	movff	___flmul@grs+3,??___flmul+3
  1784  00031E  0E19               	movlw	25
  1785  000320  EF97  F001         	goto	u950
  1786  000324                     u955:
  1787  000324  90D8               	bcf	status,0,c
  1788  000326  321A               	rrcf	(??___flmul+3)^0,f,c
  1789  000328  3219               	rrcf	(??___flmul+2)^0,f,c
  1790  00032A  3218               	rrcf	(??___flmul+1)^0,f,c
  1791  00032C  3217               	rrcf	??___flmul^0,f,c
  1792  00032E                     u950:
  1793  00032E  2EE8               	decfsz	wreg,f,c
  1794  000330  EF92  F001         	goto	u955
  1795  000334  5017               	movf	??___flmul^0,w,c
  1796  000336  2622               	addwf	___flmul@prod^0,f,c
  1797  000338  5018               	movf	(??___flmul+1)^0,w,c
  1798  00033A  2223               	addwfc	(___flmul@prod+1)^0,f,c
  1799  00033C  5019               	movf	(??___flmul+2)^0,w,c
  1800  00033E  2224               	addwfc	(___flmul@prod+2)^0,f,c
  1801  000340  501A               	movf	(??___flmul+3)^0,w,c
  1802  000342  2225               	addwfc	(___flmul@prod+3)^0,f,c
  1803  000344  C01E  F01F         	movff	___flmul@grs+2,___flmul@grs+3
  1804  000348  C01D  F01E         	movff	___flmul@grs+1,___flmul@grs+2
  1805  00034C  C01C  F01D         	movff	___flmul@grs,___flmul@grs+1
  1806  000350  6A1C               	clrf	___flmul@grs^0,c
  1807  000352  5020               	movf	___flmul@aexp^0,w,c
  1808  000354  C021  F017         	movff	___flmul@bexp,??___flmul
  1809  000358  6A18               	clrf	(??___flmul+1)^0,c
  1810  00035A  2617               	addwf	??___flmul^0,f,c
  1811  00035C  0E00               	movlw	0
  1812  00035E  2218               	addwfc	(??___flmul+1)^0,f,c
  1813  000360  0E82               	movlw	130
  1814  000362  2417               	addwf	??___flmul^0,w,c
  1815  000364  6E26               	movwf	___flmul@temp^0,c
  1816  000366  0EFF               	movlw	255
  1817  000368  2018               	addwfc	(??___flmul+1)^0,w,c
  1818  00036A  6E27               	movwf	(___flmul@temp+1)^0,c
  1819  00036C  EFCD  F001         	goto	l1518
  1820  000370                     l1512:
  1821  000370  90D8               	bcf	status,0,c
  1822  000372  3622               	rlcf	___flmul@prod^0,f,c
  1823  000374  3623               	rlcf	(___flmul@prod+1)^0,f,c
  1824  000376  3624               	rlcf	(___flmul@prod+2)^0,f,c
  1825  000378  3625               	rlcf	(___flmul@prod+3)^0,f,c
  1826  00037A  AE1F               	btfss	(___flmul@grs+3)^0,7,c
  1827  00037C  EFC2  F001         	goto	u961
  1828  000380  EFC4  F001         	goto	u960
  1829  000384                     u961:
  1830  000384  EFC5  F001         	goto	l778
  1831  000388                     u960:
  1832  000388  8022               	bsf	___flmul@prod^0,0,c
  1833  00038A                     l778:
  1834  00038A  90D8               	bcf	status,0,c
  1835  00038C  361C               	rlcf	___flmul@grs^0,f,c
  1836  00038E  361D               	rlcf	(___flmul@grs+1)^0,f,c
  1837  000390  361E               	rlcf	(___flmul@grs+2)^0,f,c
  1838  000392  361F               	rlcf	(___flmul@grs+3)^0,f,c
  1839  000394  0626               	decf	___flmul@temp^0,f,c
  1840  000396  A0D8               	btfss	status,0,c
  1841  000398  0627               	decf	(___flmul@temp+1)^0,f,c
  1842  00039A                     l1518:
  1843  00039A  AE24               	btfss	(___flmul@prod+2)^0,7,c
  1844  00039C  EFD2  F001         	goto	u971
  1845  0003A0  EFD4  F001         	goto	u970
  1846  0003A4                     u971:
  1847  0003A4  EFB8  F001         	goto	l1512
  1848  0003A8                     u970:
  1849  0003A8  0E00               	movlw	0
  1850  0003AA  6E20               	movwf	___flmul@aexp^0,c
  1851  0003AC  AE1F               	btfss	(___flmul@grs+3)^0,7,c
  1852  0003AE  EFDB  F001         	goto	u981
  1853  0003B2  EFDD  F001         	goto	u980
  1854  0003B6                     u981:
  1855  0003B6  EF01  F002         	goto	l780
  1856  0003BA                     u980:
  1857  0003BA  0EFF               	movlw	255
  1858  0003BC  141C               	andwf	___flmul@grs^0,w,c
  1859  0003BE  6E17               	movwf	??___flmul^0,c
  1860  0003C0  0EFF               	movlw	255
  1861  0003C2  141D               	andwf	(___flmul@grs+1)^0,w,c
  1862  0003C4  6E18               	movwf	(??___flmul+1)^0,c
  1863  0003C6  0EFF               	movlw	255
  1864  0003C8  141E               	andwf	(___flmul@grs+2)^0,w,c
  1865  0003CA  6E19               	movwf	(??___flmul+2)^0,c
  1866  0003CC  0E7F               	movlw	127
  1867  0003CE  141F               	andwf	(___flmul@grs+3)^0,w,c
  1868  0003D0  6E1A               	movwf	(??___flmul+3)^0,c
  1869  0003D2  5017               	movf	??___flmul^0,w,c
  1870  0003D4  1018               	iorwf	(??___flmul+1)^0,w,c
  1871  0003D6  1019               	iorwf	(??___flmul+2)^0,w,c
  1872  0003D8  101A               	iorwf	(??___flmul+3)^0,w,c
  1873  0003DA  B4D8               	btfsc	status,2,c
  1874  0003DC  EFF2  F001         	goto	u991
  1875  0003E0  EFF4  F001         	goto	u990
  1876  0003E4                     u991:
  1877  0003E4  EFF8  F001         	goto	l781
  1878  0003E8                     u990:
  1879  0003E8                     l1526:
  1880  0003E8  0E01               	movlw	1
  1881  0003EA  6E20               	movwf	___flmul@aexp^0,c
  1882  0003EC  EF01  F002         	goto	l780
  1883  0003F0                     l781:
  1884  0003F0  A022               	btfss	___flmul@prod^0,0,c
  1885  0003F2  EFFD  F001         	goto	u1001
  1886  0003F6  EFFF  F001         	goto	u1000
  1887  0003FA                     u1001:
  1888  0003FA  EF01  F002         	goto	l780
  1889  0003FE                     u1000:
  1890  0003FE  EFF4  F001         	goto	l1526
  1891  000402                     l780:
  1892  000402  5020               	movf	___flmul@aexp^0,w,c
  1893  000404  B4D8               	btfsc	status,2,c
  1894  000406  EF07  F002         	goto	u1011
  1895  00040A  EF09  F002         	goto	u1010
  1896  00040E                     u1011:
  1897  00040E  EF2D  F002         	goto	l1538
  1898  000412                     u1010:
  1899  000412  0E01               	movlw	1
  1900  000414  2622               	addwf	___flmul@prod^0,f,c
  1901  000416  0E00               	movlw	0
  1902  000418  2223               	addwfc	(___flmul@prod+1)^0,f,c
  1903  00041A  2224               	addwfc	(___flmul@prod+2)^0,f,c
  1904  00041C  2225               	addwfc	(___flmul@prod+3)^0,f,c
  1905  00041E  A025               	btfss	(___flmul@prod+3)^0,0,c
  1906  000420  EF14  F002         	goto	u1021
  1907  000424  EF16  F002         	goto	u1020
  1908  000428                     u1021:
  1909  000428  EF2D  F002         	goto	l1538
  1910  00042C                     u1020:
  1911  00042C  C022  F017         	movff	___flmul@prod,??___flmul
  1912  000430  C023  F018         	movff	___flmul@prod+1,??___flmul+1
  1913  000434  C024  F019         	movff	___flmul@prod+2,??___flmul+2
  1914  000438  C025  F01A         	movff	___flmul@prod+3,??___flmul+3
  1915  00043C  341A               	rlcf	(??___flmul+3)^0,w,c
  1916  00043E  321A               	rrcf	(??___flmul+3)^0,f,c
  1917  000440  3219               	rrcf	(??___flmul+2)^0,f,c
  1918  000442  3218               	rrcf	(??___flmul+1)^0,f,c
  1919  000444  3217               	rrcf	??___flmul^0,f,c
  1920  000446  C017  F022         	movff	??___flmul,___flmul@prod
  1921  00044A  C018  F023         	movff	??___flmul+1,___flmul@prod+1
  1922  00044E  C019  F024         	movff	??___flmul+2,___flmul@prod+2
  1923  000452  C01A  F025         	movff	??___flmul+3,___flmul@prod+3
  1924  000456  4A26               	infsnz	___flmul@temp^0,f,c
  1925  000458  2A27               	incf	(___flmul@temp+1)^0,f,c
  1926  00045A                     l1538:
  1927  00045A  BE27               	btfsc	(___flmul@temp+1)^0,7,c
  1928  00045C  EF38  F002         	goto	u1031
  1929  000460  5027               	movf	(___flmul@temp+1)^0,w,c
  1930  000462  E108               	bnz	u1030
  1931  000464  2826               	incf	___flmul@temp^0,w,c
  1932  000466  A0D8               	btfss	status,0,c
  1933  000468  EF38  F002         	goto	u1031
  1934  00046C  EF3A  F002         	goto	u1030
  1935  000470                     u1031:
  1936  000470  EF44  F002         	goto	l1542
  1937  000474                     u1030:
  1938  000474  0E00               	movlw	0
  1939  000476  6E22               	movwf	___flmul@prod^0,c
  1940  000478  0E00               	movlw	0
  1941  00047A  6E23               	movwf	(___flmul@prod+1)^0,c
  1942  00047C  0E80               	movlw	128
  1943  00047E  6E24               	movwf	(___flmul@prod+2)^0,c
  1944  000480  0E7F               	movlw	127
  1945  000482  6E25               	movwf	(___flmul@prod+3)^0,c
  1946  000484  EF72  F002         	goto	l1554
  1947  000488                     l1542:
  1948  000488  BE27               	btfsc	(___flmul@temp+1)^0,7,c
  1949  00048A  EF51  F002         	goto	u1040
  1950  00048E  5027               	movf	(___flmul@temp+1)^0,w,c
  1951  000490  E106               	bnz	u1041
  1952  000492  0426               	decf	___flmul@temp^0,w,c
  1953  000494  B0D8               	btfsc	status,0,c
  1954  000496  EF4F  F002         	goto	u1041
  1955  00049A  EF51  F002         	goto	u1040
  1956  00049E                     u1041:
  1957  00049E  EF5D  F002         	goto	l788
  1958  0004A2                     u1040:
  1959  0004A2  0E00               	movlw	0
  1960  0004A4  6E22               	movwf	___flmul@prod^0,c
  1961  0004A6  0E00               	movlw	0
  1962  0004A8  6E23               	movwf	(___flmul@prod+1)^0,c
  1963  0004AA  0E00               	movlw	0
  1964  0004AC  6E24               	movwf	(___flmul@prod+2)^0,c
  1965  0004AE  0E00               	movlw	0
  1966  0004B0  6E25               	movwf	(___flmul@prod+3)^0,c
  1967  0004B2  0E00               	movlw	0
  1968  0004B4  6E1B               	movwf	___flmul@sign^0,c
  1969  0004B6  EF72  F002         	goto	l1554
  1970  0004BA                     l788:
  1971  0004BA  C026  F021         	movff	___flmul@temp,___flmul@bexp
  1972  0004BE  0EFF               	movlw	255
  1973  0004C0  1622               	andwf	___flmul@prod^0,f,c
  1974  0004C2  0EFF               	movlw	255
  1975  0004C4  1623               	andwf	(___flmul@prod+1)^0,f,c
  1976  0004C6  0E7F               	movlw	127
  1977  0004C8  1624               	andwf	(___flmul@prod+2)^0,f,c
  1978  0004CA  0E00               	movlw	0
  1979  0004CC  1625               	andwf	(___flmul@prod+3)^0,f,c
  1980  0004CE  A021               	btfss	___flmul@bexp^0,0,c
  1981  0004D0  EF6C  F002         	goto	u1051
  1982  0004D4  EF6E  F002         	goto	u1050
  1983  0004D8                     u1051:
  1984  0004D8  EF6F  F002         	goto	l1552
  1985  0004DC                     u1050:
  1986  0004DC  8E24               	bsf	(___flmul@prod+2)^0,7,c
  1987  0004DE                     l1552:
  1988  0004DE  90D8               	bcf	status,0,c
  1989  0004E0  3021               	rrcf	___flmul@bexp^0,w,c
  1990  0004E2  6E25               	movwf	(___flmul@prod+3)^0,c
  1991  0004E4                     l1554:
  1992  0004E4  501B               	movf	___flmul@sign^0,w,c
  1993  0004E6  1225               	iorwf	(___flmul@prod+3)^0,f,c
  1994  0004E8  C022  F00F         	movff	___flmul@prod,?___flmul
  1995  0004EC  C023  F010         	movff	___flmul@prod+1,?___flmul+1
  1996  0004F0  C024  F011         	movff	___flmul@prod+2,?___flmul+2
  1997  0004F4  C025  F012         	movff	___flmul@prod+3,?___flmul+3
  1998  0004F8                     l775:
  1999  0004F8  0012               	return		;funcret
  2000  0004FA                     __end_of___flmul:
  2001                           	callstack 0
  2002                           
  2003 ;; *************** function ___fldiv *****************
  2004 ;; Defined at:
  2005 ;;		line 11 in file "C:\Program Files\Microchip\xc8\v2.32\pic\sources\c99\common\sprcdiv.c"
  2006 ;; Parameters:    Size  Location     Type
  2007 ;;  b               4   14[COMRAM] unsigned char 
  2008 ;;  a               4   18[COMRAM] unsigned char 
  2009 ;; Auto vars:     Size  Location     Type
  2010 ;;  grs             4   33[COMRAM] unsigned long 
  2011 ;;  rem             4   26[COMRAM] unsigned long 
  2012 ;;  new_exp         2   31[COMRAM] short 
  2013 ;;  aexp            1   38[COMRAM] unsigned char 
  2014 ;;  bexp            1   37[COMRAM] unsigned char 
  2015 ;;  sign            1   30[COMRAM] unsigned char 
  2016 ;; Return value:  Size  Location     Type
  2017 ;;                  4   14[COMRAM] unsigned char 
  2018 ;; Registers used:
  2019 ;;		wreg, status,2, status,0
  2020 ;; Tracked objects:
  2021 ;;		On entry : 0/0
  2022 ;;		On exit  : 0/0
  2023 ;;		Unchanged: 0/0
  2024 ;; Data sizes:     COMRAM   BANK0   BANK1   BANK2   BANK3   BANK4   BANK5   BANK6   BANK7   BANK8   BANK9  BANK10  BANK1
      +1  BANK12  BANK13  BANK14  BANK15
  2025 ;;      Params:         8       0       0       0       0       0       0       0       0       0       0       0       
      +0       0       0       0       0
  2026 ;;      Locals:        13       0       0       0       0       0       0       0       0       0       0       0       
      +0       0       0       0       0
  2027 ;;      Temps:          4       0       0       0       0       0       0       0       0       0       0       0       
      +0       0       0       0       0
  2028 ;;      Totals:        25       0       0       0       0       0       0       0       0       0       0       0       
      +0       0       0       0       0
  2029 ;;Total ram usage:       25 bytes
  2030 ;; Hardware stack levels used: 1
  2031 ;; Hardware stack levels required when called: 1
  2032 ;; This function calls:
  2033 ;;		Nothing
  2034 ;; This function is called by:
  2035 ;;		_Drv_Adc_Read_Temp_Ext
  2036 ;; This function uses a non-reentrant model
  2037 ;;
  2038                           
  2039                           	psect	text10
  2040  0004FA                     __ptext10:
  2041                           	callstack 0
  2042  0004FA                     ___fldiv:
  2043                           	callstack 28
  2044  0004FA  5012               	movf	(___fldiv@b+3)^0,w,c
  2045  0004FC  0B80               	andlw	128
  2046  0004FE  6E1F               	movwf	___fldiv@sign^0,c
  2047  000500  5012               	movf	(___fldiv@b+3)^0,w,c
  2048  000502  2412               	addwf	(___fldiv@b+3)^0,w,c
  2049  000504  6E26               	movwf	___fldiv@bexp^0,c
  2050  000506  AE11               	btfss	(___fldiv@b+2)^0,7,c
  2051  000508  EF88  F002         	goto	u641
  2052  00050C  EF8A  F002         	goto	u640
  2053  000510                     u641:
  2054  000510  EF8B  F002         	goto	l1298
  2055  000514                     u640:
  2056  000514  8026               	bsf	___fldiv@bexp^0,0,c
  2057  000516                     l1298:
  2058  000516  5026               	movf	___fldiv@bexp^0,w,c
  2059  000518  B4D8               	btfsc	status,2,c
  2060  00051A  EF91  F002         	goto	u651
  2061  00051E  EF93  F002         	goto	u650
  2062  000522                     u651:
  2063  000522  EFA8  F002         	goto	l1308
  2064  000526                     u650:
  2065  000526  2826               	incf	___fldiv@bexp^0,w,c
  2066  000528  A4D8               	btfss	status,2,c
  2067  00052A  EF99  F002         	goto	u661
  2068  00052E  EF9B  F002         	goto	u660
  2069  000532                     u661:
  2070  000532  EFA3  F002         	goto	l1304
  2071  000536                     u660:
  2072  000536  0E00               	movlw	0
  2073  000538  6E0F               	movwf	___fldiv@b^0,c
  2074  00053A  0E00               	movlw	0
  2075  00053C  6E10               	movwf	(___fldiv@b+1)^0,c
  2076  00053E  0E00               	movlw	0
  2077  000540  6E11               	movwf	(___fldiv@b+2)^0,c
  2078  000542  0E00               	movlw	0
  2079  000544  6E12               	movwf	(___fldiv@b+3)^0,c
  2080  000546                     l1304:
  2081  000546  8E11               	bsf	(___fldiv@b+2)^0,7,c
  2082  000548  0E00               	movlw	0
  2083  00054A  6E12               	movwf	(___fldiv@b+3)^0,c
  2084  00054C  EFB0  F002         	goto	l1310
  2085  000550                     l1308:
  2086  000550  0E00               	movlw	0
  2087  000552  6E0F               	movwf	___fldiv@b^0,c
  2088  000554  0E00               	movlw	0
  2089  000556  6E10               	movwf	(___fldiv@b+1)^0,c
  2090  000558  0E00               	movlw	0
  2091  00055A  6E11               	movwf	(___fldiv@b+2)^0,c
  2092  00055C  0E00               	movlw	0
  2093  00055E  6E12               	movwf	(___fldiv@b+3)^0,c
  2094  000560                     l1310:
  2095  000560  5016               	movf	(___fldiv@a+3)^0,w,c
  2096  000562  0B80               	andlw	128
  2097  000564  1A1F               	xorwf	___fldiv@sign^0,f,c
  2098  000566  5016               	movf	(___fldiv@a+3)^0,w,c
  2099  000568  2416               	addwf	(___fldiv@a+3)^0,w,c
  2100  00056A  6E27               	movwf	___fldiv@aexp^0,c
  2101  00056C  AE15               	btfss	(___fldiv@a+2)^0,7,c
  2102  00056E  EFBB  F002         	goto	u671
  2103  000572  EFBD  F002         	goto	u670
  2104  000576                     u671:
  2105  000576  EFBE  F002         	goto	l1318
  2106  00057A                     u670:
  2107  00057A  8027               	bsf	___fldiv@aexp^0,0,c
  2108  00057C                     l1318:
  2109  00057C  5027               	movf	___fldiv@aexp^0,w,c
  2110  00057E  B4D8               	btfsc	status,2,c
  2111  000580  EFC4  F002         	goto	u681
  2112  000584  EFC6  F002         	goto	u680
  2113  000588                     u681:
  2114  000588  EFDB  F002         	goto	l1328
  2115  00058C                     u680:
  2116  00058C  2827               	incf	___fldiv@aexp^0,w,c
  2117  00058E  A4D8               	btfss	status,2,c
  2118  000590  EFCC  F002         	goto	u691
  2119  000594  EFCE  F002         	goto	u690
  2120  000598                     u691:
  2121  000598  EFD6  F002         	goto	l1324
  2122  00059C                     u690:
  2123  00059C  0E00               	movlw	0
  2124  00059E  6E13               	movwf	___fldiv@a^0,c
  2125  0005A0  0E00               	movlw	0
  2126  0005A2  6E14               	movwf	(___fldiv@a+1)^0,c
  2127  0005A4  0E00               	movlw	0
  2128  0005A6  6E15               	movwf	(___fldiv@a+2)^0,c
  2129  0005A8  0E00               	movlw	0
  2130  0005AA  6E16               	movwf	(___fldiv@a+3)^0,c
  2131  0005AC                     l1324:
  2132  0005AC  8E15               	bsf	(___fldiv@a+2)^0,7,c
  2133  0005AE  0E00               	movlw	0
  2134  0005B0  6E16               	movwf	(___fldiv@a+3)^0,c
  2135  0005B2  EFE3  F002         	goto	l1330
  2136  0005B6                     l1328:
  2137  0005B6  0E00               	movlw	0
  2138  0005B8  6E13               	movwf	___fldiv@a^0,c
  2139  0005BA  0E00               	movlw	0
  2140  0005BC  6E14               	movwf	(___fldiv@a+1)^0,c
  2141  0005BE  0E00               	movlw	0
  2142  0005C0  6E15               	movwf	(___fldiv@a+2)^0,c
  2143  0005C2  0E00               	movlw	0
  2144  0005C4  6E16               	movwf	(___fldiv@a+3)^0,c
  2145  0005C6                     l1330:
  2146  0005C6  5013               	movf	___fldiv@a^0,w,c
  2147  0005C8  1014               	iorwf	(___fldiv@a+1)^0,w,c
  2148  0005CA  1015               	iorwf	(___fldiv@a+2)^0,w,c
  2149  0005CC  1016               	iorwf	(___fldiv@a+3)^0,w,c
  2150  0005CE  A4D8               	btfss	status,2,c
  2151  0005D0  EFEC  F002         	goto	u701
  2152  0005D4  EFEE  F002         	goto	u700
  2153  0005D8                     u701:
  2154  0005D8  EF06  F003         	goto	l1342
  2155  0005DC                     u700:
  2156  0005DC  0E00               	movlw	0
  2157  0005DE  6E0F               	movwf	___fldiv@b^0,c
  2158  0005E0  0E00               	movlw	0
  2159  0005E2  6E10               	movwf	(___fldiv@b+1)^0,c
  2160  0005E4  0E00               	movlw	0
  2161  0005E6  6E11               	movwf	(___fldiv@b+2)^0,c
  2162  0005E8  0E00               	movlw	0
  2163  0005EA  6E12               	movwf	(___fldiv@b+3)^0,c
  2164  0005EC  0E80               	movlw	128
  2165  0005EE  1211               	iorwf	(___fldiv@b+2)^0,f,c
  2166  0005F0  0E7F               	movlw	127
  2167  0005F2  1212               	iorwf	(___fldiv@b+3)^0,f,c
  2168  0005F4                     l1336:
  2169  0005F4  501F               	movf	___fldiv@sign^0,w,c
  2170  0005F6  1212               	iorwf	(___fldiv@b+3)^0,f,c
  2171  0005F8  C00F  F00F         	movff	___fldiv@b,?___fldiv
  2172  0005FC  C010  F010         	movff	___fldiv@b+1,?___fldiv+1
  2173  000600  C011  F011         	movff	___fldiv@b+2,?___fldiv+2
  2174  000604  C012  F012         	movff	___fldiv@b+3,?___fldiv+3
  2175  000608  EF49  F004         	goto	l739
  2176  00060C                     l1342:
  2177  00060C  5026               	movf	___fldiv@bexp^0,w,c
  2178  00060E  A4D8               	btfss	status,2,c
  2179  000610  EF0C  F003         	goto	u711
  2180  000614  EF0E  F003         	goto	u710
  2181  000618                     u711:
  2182  000618  EF18  F003         	goto	l1350
  2183  00061C                     u710:
  2184  00061C  0E00               	movlw	0
  2185  00061E  6E0F               	movwf	?___fldiv^0,c
  2186  000620  0E00               	movlw	0
  2187  000622  6E10               	movwf	(?___fldiv+1)^0,c
  2188  000624  0E00               	movlw	0
  2189  000626  6E11               	movwf	(?___fldiv+2)^0,c
  2190  000628  0E00               	movlw	0
  2191  00062A  6E12               	movwf	(?___fldiv+3)^0,c
  2192  00062C  EF49  F004         	goto	l739
  2193  000630                     l1350:
  2194  000630  5027               	movf	___fldiv@aexp^0,w,c
  2195  000632  C026  F017         	movff	___fldiv@bexp,??___fldiv
  2196  000636  6A18               	clrf	(??___fldiv+1)^0,c
  2197  000638  5E17               	subwf	??___fldiv^0,f,c
  2198  00063A  0E00               	movlw	0
  2199  00063C  5A18               	subwfb	(??___fldiv+1)^0,f,c
  2200  00063E  0E7F               	movlw	127
  2201  000640  2417               	addwf	??___fldiv^0,w,c
  2202  000642  6E20               	movwf	___fldiv@new_exp^0,c
  2203  000644  0E00               	movlw	0
  2204  000646  2018               	addwfc	(??___fldiv+1)^0,w,c
  2205  000648  6E21               	movwf	(___fldiv@new_exp+1)^0,c
  2206  00064A  C00F  F01B         	movff	___fldiv@b,___fldiv@rem
  2207  00064E  C010  F01C         	movff	___fldiv@b+1,___fldiv@rem+1
  2208  000652  C011  F01D         	movff	___fldiv@b+2,___fldiv@rem+2
  2209  000656  C012  F01E         	movff	___fldiv@b+3,___fldiv@rem+3
  2210  00065A  0E00               	movlw	0
  2211  00065C  6E0F               	movwf	___fldiv@b^0,c
  2212  00065E  0E00               	movlw	0
  2213  000660  6E10               	movwf	(___fldiv@b+1)^0,c
  2214  000662  0E00               	movlw	0
  2215  000664  6E11               	movwf	(___fldiv@b+2)^0,c
  2216  000666  0E00               	movlw	0
  2217  000668  6E12               	movwf	(___fldiv@b+3)^0,c
  2218  00066A  0E00               	movlw	0
  2219  00066C  6E22               	movwf	___fldiv@grs^0,c
  2220  00066E  0E00               	movlw	0
  2221  000670  6E23               	movwf	(___fldiv@grs+1)^0,c
  2222  000672  0E00               	movlw	0
  2223  000674  6E24               	movwf	(___fldiv@grs+2)^0,c
  2224  000676  0E00               	movlw	0
  2225  000678  6E25               	movwf	(___fldiv@grs+3)^0,c
  2226  00067A  0E00               	movlw	0
  2227  00067C  6E27               	movwf	___fldiv@aexp^0,c
  2228  00067E  EF79  F003         	goto	l741
  2229  000682                     l1360:
  2230  000682  5027               	movf	___fldiv@aexp^0,w,c
  2231  000684  B4D8               	btfsc	status,2,c
  2232  000686  EF47  F003         	goto	u721
  2233  00068A  EF49  F003         	goto	u720
  2234  00068E                     u721:
  2235  00068E  EF60  F003         	goto	l1368
  2236  000692                     u720:
  2237  000692  90D8               	bcf	status,0,c
  2238  000694  361B               	rlcf	___fldiv@rem^0,f,c
  2239  000696  361C               	rlcf	(___fldiv@rem+1)^0,f,c
  2240  000698  361D               	rlcf	(___fldiv@rem+2)^0,f,c
  2241  00069A  361E               	rlcf	(___fldiv@rem+3)^0,f,c
  2242  00069C  90D8               	bcf	status,0,c
  2243  00069E  360F               	rlcf	___fldiv@b^0,f,c
  2244  0006A0  3610               	rlcf	(___fldiv@b+1)^0,f,c
  2245  0006A2  3611               	rlcf	(___fldiv@b+2)^0,f,c
  2246  0006A4  3612               	rlcf	(___fldiv@b+3)^0,f,c
  2247  0006A6  AE25               	btfss	(___fldiv@grs+3)^0,7,c
  2248  0006A8  EF58  F003         	goto	u731
  2249  0006AC  EF5A  F003         	goto	u730
  2250  0006B0                     u731:
  2251  0006B0  EF5B  F003         	goto	l744
  2252  0006B4                     u730:
  2253  0006B4  800F               	bsf	___fldiv@b^0,0,c
  2254  0006B6                     l744:
  2255  0006B6  90D8               	bcf	status,0,c
  2256  0006B8  3622               	rlcf	___fldiv@grs^0,f,c
  2257  0006BA  3623               	rlcf	(___fldiv@grs+1)^0,f,c
  2258  0006BC  3624               	rlcf	(___fldiv@grs+2)^0,f,c
  2259  0006BE  3625               	rlcf	(___fldiv@grs+3)^0,f,c
  2260  0006C0                     l1368:
  2261  0006C0  5013               	movf	___fldiv@a^0,w,c
  2262  0006C2  5C1B               	subwf	___fldiv@rem^0,w,c
  2263  0006C4  5014               	movf	(___fldiv@a+1)^0,w,c
  2264  0006C6  581C               	subwfb	(___fldiv@rem+1)^0,w,c
  2265  0006C8  5015               	movf	(___fldiv@a+2)^0,w,c
  2266  0006CA  581D               	subwfb	(___fldiv@rem+2)^0,w,c
  2267  0006CC  5016               	movf	(___fldiv@a+3)^0,w,c
  2268  0006CE  581E               	subwfb	(___fldiv@rem+3)^0,w,c
  2269  0006D0  A0D8               	btfss	status,0,c
  2270  0006D2  EF6D  F003         	goto	u741
  2271  0006D6  EF6F  F003         	goto	u740
  2272  0006DA                     u741:
  2273  0006DA  EF78  F003         	goto	l1374
  2274  0006DE                     u740:
  2275  0006DE  8C25               	bsf	(___fldiv@grs+3)^0,6,c
  2276  0006E0  5013               	movf	___fldiv@a^0,w,c
  2277  0006E2  5E1B               	subwf	___fldiv@rem^0,f,c
  2278  0006E4  5014               	movf	(___fldiv@a+1)^0,w,c
  2279  0006E6  5A1C               	subwfb	(___fldiv@rem+1)^0,f,c
  2280  0006E8  5015               	movf	(___fldiv@a+2)^0,w,c
  2281  0006EA  5A1D               	subwfb	(___fldiv@rem+2)^0,f,c
  2282  0006EC  5016               	movf	(___fldiv@a+3)^0,w,c
  2283  0006EE  5A1E               	subwfb	(___fldiv@rem+3)^0,f,c
  2284  0006F0                     l1374:
  2285  0006F0  2A27               	incf	___fldiv@aexp^0,f,c
  2286  0006F2                     l741:
  2287  0006F2  0E19               	movlw	25
  2288  0006F4  6427               	cpfsgt	___fldiv@aexp^0,c
  2289  0006F6  EF7F  F003         	goto	u751
  2290  0006FA  EF81  F003         	goto	u750
  2291  0006FE                     u751:
  2292  0006FE  EF41  F003         	goto	l1360
  2293  000702                     u750:
  2294  000702  501B               	movf	___fldiv@rem^0,w,c
  2295  000704  101C               	iorwf	(___fldiv@rem+1)^0,w,c
  2296  000706  101D               	iorwf	(___fldiv@rem+2)^0,w,c
  2297  000708  101E               	iorwf	(___fldiv@rem+3)^0,w,c
  2298  00070A  B4D8               	btfsc	status,2,c
  2299  00070C  EF8A  F003         	goto	u761
  2300  000710  EF8C  F003         	goto	u760
  2301  000714                     u761:
  2302  000714  EFA4  F003         	goto	l1386
  2303  000718                     u760:
  2304  000718  8022               	bsf	___fldiv@grs^0,0,c
  2305  00071A  EFA4  F003         	goto	l1386
  2306  00071E                     l1380:
  2307  00071E  90D8               	bcf	status,0,c
  2308  000720  360F               	rlcf	___fldiv@b^0,f,c
  2309  000722  3610               	rlcf	(___fldiv@b+1)^0,f,c
  2310  000724  3611               	rlcf	(___fldiv@b+2)^0,f,c
  2311  000726  3612               	rlcf	(___fldiv@b+3)^0,f,c
  2312  000728  AE25               	btfss	(___fldiv@grs+3)^0,7,c
  2313  00072A  EF99  F003         	goto	u771
  2314  00072E  EF9B  F003         	goto	u770
  2315  000732                     u771:
  2316  000732  EF9C  F003         	goto	l750
  2317  000736                     u770:
  2318  000736  800F               	bsf	___fldiv@b^0,0,c
  2319  000738                     l750:
  2320  000738  90D8               	bcf	status,0,c
  2321  00073A  3622               	rlcf	___fldiv@grs^0,f,c
  2322  00073C  3623               	rlcf	(___fldiv@grs+1)^0,f,c
  2323  00073E  3624               	rlcf	(___fldiv@grs+2)^0,f,c
  2324  000740  3625               	rlcf	(___fldiv@grs+3)^0,f,c
  2325  000742  0620               	decf	___fldiv@new_exp^0,f,c
  2326  000744  A0D8               	btfss	status,0,c
  2327  000746  0621               	decf	(___fldiv@new_exp+1)^0,f,c
  2328  000748                     l1386:
  2329  000748  AE11               	btfss	(___fldiv@b+2)^0,7,c
  2330  00074A  EFA9  F003         	goto	u781
  2331  00074E  EFAB  F003         	goto	u780
  2332  000752                     u781:
  2333  000752  EF8F  F003         	goto	l1380
  2334  000756                     u780:
  2335  000756  0E00               	movlw	0
  2336  000758  6E27               	movwf	___fldiv@aexp^0,c
  2337  00075A  AE25               	btfss	(___fldiv@grs+3)^0,7,c
  2338  00075C  EFB2  F003         	goto	u791
  2339  000760  EFB4  F003         	goto	u790
  2340  000764                     u791:
  2341  000764  EFD8  F003         	goto	l752
  2342  000768                     u790:
  2343  000768  0EFF               	movlw	255
  2344  00076A  1422               	andwf	___fldiv@grs^0,w,c
  2345  00076C  6E17               	movwf	??___fldiv^0,c
  2346  00076E  0EFF               	movlw	255
  2347  000770  1423               	andwf	(___fldiv@grs+1)^0,w,c
  2348  000772  6E18               	movwf	(??___fldiv+1)^0,c
  2349  000774  0EFF               	movlw	255
  2350  000776  1424               	andwf	(___fldiv@grs+2)^0,w,c
  2351  000778  6E19               	movwf	(??___fldiv+2)^0,c
  2352  00077A  0E7F               	movlw	127
  2353  00077C  1425               	andwf	(___fldiv@grs+3)^0,w,c
  2354  00077E  6E1A               	movwf	(??___fldiv+3)^0,c
  2355  000780  5017               	movf	??___fldiv^0,w,c
  2356  000782  1018               	iorwf	(??___fldiv+1)^0,w,c
  2357  000784  1019               	iorwf	(??___fldiv+2)^0,w,c
  2358  000786  101A               	iorwf	(??___fldiv+3)^0,w,c
  2359  000788  B4D8               	btfsc	status,2,c
  2360  00078A  EFC9  F003         	goto	u801
  2361  00078E  EFCB  F003         	goto	u800
  2362  000792                     u801:
  2363  000792  EFCF  F003         	goto	l753
  2364  000796                     u800:
  2365  000796                     l1394:
  2366  000796  0E01               	movlw	1
  2367  000798  6E27               	movwf	___fldiv@aexp^0,c
  2368  00079A  EFD8  F003         	goto	l752
  2369  00079E                     l753:
  2370  00079E  A00F               	btfss	___fldiv@b^0,0,c
  2371  0007A0  EFD4  F003         	goto	u811
  2372  0007A4  EFD6  F003         	goto	u810
  2373  0007A8                     u811:
  2374  0007A8  EFD8  F003         	goto	l752
  2375  0007AC                     u810:
  2376  0007AC  EFCB  F003         	goto	l1394
  2377  0007B0                     l752:
  2378  0007B0  5027               	movf	___fldiv@aexp^0,w,c
  2379  0007B2  B4D8               	btfsc	status,2,c
  2380  0007B4  EFDE  F003         	goto	u821
  2381  0007B8  EFE0  F003         	goto	u820
  2382  0007BC                     u821:
  2383  0007BC  EF04  F004         	goto	l1406
  2384  0007C0                     u820:
  2385  0007C0  0E01               	movlw	1
  2386  0007C2  260F               	addwf	___fldiv@b^0,f,c
  2387  0007C4  0E00               	movlw	0
  2388  0007C6  2210               	addwfc	(___fldiv@b+1)^0,f,c
  2389  0007C8  2211               	addwfc	(___fldiv@b+2)^0,f,c
  2390  0007CA  2212               	addwfc	(___fldiv@b+3)^0,f,c
  2391  0007CC  A012               	btfss	(___fldiv@b+3)^0,0,c
  2392  0007CE  EFEB  F003         	goto	u831
  2393  0007D2  EFED  F003         	goto	u830
  2394  0007D6                     u831:
  2395  0007D6  EF04  F004         	goto	l1406
  2396  0007DA                     u830:
  2397  0007DA  C00F  F017         	movff	___fldiv@b,??___fldiv
  2398  0007DE  C010  F018         	movff	___fldiv@b+1,??___fldiv+1
  2399  0007E2  C011  F019         	movff	___fldiv@b+2,??___fldiv+2
  2400  0007E6  C012  F01A         	movff	___fldiv@b+3,??___fldiv+3
  2401  0007EA  341A               	rlcf	(??___fldiv+3)^0,w,c
  2402  0007EC  321A               	rrcf	(??___fldiv+3)^0,f,c
  2403  0007EE  3219               	rrcf	(??___fldiv+2)^0,f,c
  2404  0007F0  3218               	rrcf	(??___fldiv+1)^0,f,c
  2405  0007F2  3217               	rrcf	??___fldiv^0,f,c
  2406  0007F4  C017  F00F         	movff	??___fldiv,___fldiv@b
  2407  0007F8  C018  F010         	movff	??___fldiv+1,___fldiv@b+1
  2408  0007FC  C019  F011         	movff	??___fldiv+2,___fldiv@b+2
  2409  000800  C01A  F012         	movff	??___fldiv+3,___fldiv@b+3
  2410  000804  4A20               	infsnz	___fldiv@new_exp^0,f,c
  2411  000806  2A21               	incf	(___fldiv@new_exp+1)^0,f,c
  2412  000808                     l1406:
  2413  000808  BE21               	btfsc	(___fldiv@new_exp+1)^0,7,c
  2414  00080A  EF0F  F004         	goto	u841
  2415  00080E  5021               	movf	(___fldiv@new_exp+1)^0,w,c
  2416  000810  E108               	bnz	u840
  2417  000812  2820               	incf	___fldiv@new_exp^0,w,c
  2418  000814  A0D8               	btfss	status,0,c
  2419  000816  EF0F  F004         	goto	u841
  2420  00081A  EF11  F004         	goto	u840
  2421  00081E                     u841:
  2422  00081E  EF1C  F004         	goto	l1410
  2423  000822                     u840:
  2424  000822  0E00               	movlw	0
  2425  000824  6E21               	movwf	(___fldiv@new_exp+1)^0,c
  2426  000826  6820               	setf	___fldiv@new_exp^0,c
  2427  000828  0E00               	movlw	0
  2428  00082A  6E0F               	movwf	___fldiv@b^0,c
  2429  00082C  0E00               	movlw	0
  2430  00082E  6E10               	movwf	(___fldiv@b+1)^0,c
  2431  000830  0E00               	movlw	0
  2432  000832  6E11               	movwf	(___fldiv@b+2)^0,c
  2433  000834  0E00               	movlw	0
  2434  000836  6E12               	movwf	(___fldiv@b+3)^0,c
  2435  000838                     l1410:
  2436  000838  BE21               	btfsc	(___fldiv@new_exp+1)^0,7,c
  2437  00083A  EF29  F004         	goto	u850
  2438  00083E  5021               	movf	(___fldiv@new_exp+1)^0,w,c
  2439  000840  E106               	bnz	u851
  2440  000842  0420               	decf	___fldiv@new_exp^0,w,c
  2441  000844  B0D8               	btfsc	status,0,c
  2442  000846  EF27  F004         	goto	u851
  2443  00084A  EF29  F004         	goto	u850
  2444  00084E                     u851:
  2445  00084E  EF37  F004         	goto	l1414
  2446  000852                     u850:
  2447  000852  0E00               	movlw	0
  2448  000854  6E21               	movwf	(___fldiv@new_exp+1)^0,c
  2449  000856  0E00               	movlw	0
  2450  000858  6E20               	movwf	___fldiv@new_exp^0,c
  2451  00085A  0E00               	movlw	0
  2452  00085C  6E0F               	movwf	___fldiv@b^0,c
  2453  00085E  0E00               	movlw	0
  2454  000860  6E10               	movwf	(___fldiv@b+1)^0,c
  2455  000862  0E00               	movlw	0
  2456  000864  6E11               	movwf	(___fldiv@b+2)^0,c
  2457  000866  0E00               	movlw	0
  2458  000868  6E12               	movwf	(___fldiv@b+3)^0,c
  2459  00086A  0E00               	movlw	0
  2460  00086C  6E1F               	movwf	___fldiv@sign^0,c
  2461  00086E                     l1414:
  2462  00086E  C020  F026         	movff	___fldiv@new_exp,___fldiv@bexp
  2463  000872  A026               	btfss	___fldiv@bexp^0,0,c
  2464  000874  EF3E  F004         	goto	u861
  2465  000878  EF40  F004         	goto	u860
  2466  00087C                     u861:
  2467  00087C  EF43  F004         	goto	l1420
  2468  000880                     u860:
  2469  000880  8E11               	bsf	(___fldiv@b+2)^0,7,c
  2470  000882  EF44  F004         	goto	l1422
  2471  000886                     l1420:
  2472  000886  9E11               	bcf	(___fldiv@b+2)^0,7,c
  2473  000888                     l1422:
  2474  000888  90D8               	bcf	status,0,c
  2475  00088A  3026               	rrcf	___fldiv@bexp^0,w,c
  2476  00088C  6E12               	movwf	(___fldiv@b+3)^0,c
  2477  00088E  EFFA  F002         	goto	l1336
  2478  000892                     l739:
  2479  000892  0012               	return		;funcret
  2480  000894                     __end_of___fldiv:
  2481                           	callstack 0
  2482                           
  2483 ;; *************** function _App_Private_Cmd_Execute_Periodic_Task *****************
  2484 ;; Defined at:
  2485 ;;		line 45 in file "timer0.c"
  2486 ;; Parameters:    Size  Location     Type
  2487 ;;		None
  2488 ;; Auto vars:     Size  Location     Type
  2489 ;;		None
  2490 ;; Return value:  Size  Location     Type
  2491 ;;                  1    wreg      void 
  2492 ;; Registers used:
  2493 ;;		status,2, status,0
  2494 ;; Tracked objects:
  2495 ;;		On entry : 0/0
  2496 ;;		On exit  : 0/0
  2497 ;;		Unchanged: 0/0
  2498 ;; Data sizes:     COMRAM   BANK0   BANK1   BANK2   BANK3   BANK4   BANK5   BANK6   BANK7   BANK8   BANK9  BANK10  BANK1
      +1  BANK12  BANK13  BANK14  BANK15
  2499 ;;      Params:         0       0       0       0       0       0       0       0       0       0       0       0       
      +0       0       0       0       0
  2500 ;;      Locals:         0       0       0       0       0       0       0       0       0       0       0       0       
      +0       0       0       0       0
  2501 ;;      Temps:          0       0       0       0       0       0       0       0       0       0       0       0       
      +0       0       0       0       0
  2502 ;;      Totals:         0       0       0       0       0       0       0       0       0       0       0       0       
      +0       0       0       0       0
  2503 ;;Total ram usage:        0 bytes
  2504 ;; Hardware stack levels used: 1
  2505 ;; This function calls:
  2506 ;;		Nothing
  2507 ;; This function is called by:
  2508 ;;		Interrupt level 2
  2509 ;; This function uses a non-reentrant model
  2510 ;;
  2511                           
  2512                           	psect	text11
  2513  000E0C                     __ptext11:
  2514                           	callstack 0
  2515  000E0C                     _App_Private_Cmd_Execute_Periodic_Task:
  2516                           	callstack 28
  2517  000E0C                     
  2518                           ;timer0.c: 47:     if ( PIR3bits.TMR0IF == 1)
  2519  000E0C  0139               	movlb	57	; () banked
  2520  000E0E  AFA3               	btfss	163,7,b	;volatile
  2521  000E10  EF0C  F007         	goto	i2u63_41
  2522  000E14  EF0E  F007         	goto	i2u63_40
  2523  000E18                     i2u63_41:
  2524  000E18  EF10  F007         	goto	i2l146
  2525  000E1C                     i2u63_40:
  2526  000E1C                     
  2527                           ; BSR set to: 57
  2528                           ;timer0.c: 48:     {;timer0.c: 49:     ui8Compteur++;
  2529  000E1C  2A4E               	incf	_ui8Compteur^0,f,c
  2530  000E1E                     
  2531                           ; BSR set to: 57
  2532                           ;timer0.c: 51:     PIR3bits.TMR0IF = 0;
  2533  000E1E  9FA3               	bcf	163,7,b	;volatile
  2534  000E20                     i2l146:
  2535                           
  2536                           ; BSR set to: 57
  2537  000E20  0011               	retfie		f
  2538  000E22                     __end_of_App_Private_Cmd_Execute_Periodic_Task:
  2539                           	callstack 0
  2540                           
  2541                           ;
  2542                           ; Interrupt Vector Table @ 0x8
  2543                           ;
  2544                           
  2545                           	psect	ivt0x8
  2546  000008                     __pivt0x8:
  2547                           	callstack 0
  2548  000008                     ivt0x8_base:
  2549                           	callstack 0
  2550                           
  2551                           ; Vector 0 : SWINT
  2552  000008  0029               	dw	ivt0x8_undefint shr (0+2)
  2553                           
  2554                           ; Vector 1 : HLVD
  2555  00000A  0029               	dw	ivt0x8_undefint shr (0+2)
  2556                           
  2557                           ; Vector 2 : OSF
  2558  00000C  0029               	dw	ivt0x8_undefint shr (0+2)
  2559                           
  2560                           ; Vector 3 : CSW
  2561  00000E  0029               	dw	ivt0x8_undefint shr (0+2)
  2562                           
  2563                           ; Vector 4 : NVM
  2564  000010  0029               	dw	ivt0x8_undefint shr (0+2)
  2565                           
  2566                           ; Vector 5 : SCAN
  2567  000012  0029               	dw	ivt0x8_undefint shr (0+2)
  2568                           
  2569                           ; Vector 6 : CRC
  2570  000014  0029               	dw	ivt0x8_undefint shr (0+2)
  2571                           
  2572                           ; Vector 7 : IOC
  2573  000016  0029               	dw	ivt0x8_undefint shr (0+2)
  2574                           
  2575                           ; Vector 8 : INT0
  2576  000018  0029               	dw	ivt0x8_undefint shr (0+2)
  2577                           
  2578                           ; Vector 9 : ZCD
  2579  00001A  0029               	dw	ivt0x8_undefint shr (0+2)
  2580                           
  2581                           ; Vector 10 : AD
  2582  00001C  0029               	dw	ivt0x8_undefint shr (0+2)
  2583                           
  2584                           ; Vector 11 : ADT
  2585  00001E  0029               	dw	ivt0x8_undefint shr (0+2)
  2586                           
  2587                           ; Vector 12 : CMP1
  2588  000020  0029               	dw	ivt0x8_undefint shr (0+2)
  2589                           
  2590                           ; Vector 13 : SMT1
  2591  000022  0029               	dw	ivt0x8_undefint shr (0+2)
  2592                           
  2593                           ; Vector 14 : SMT1PRA
  2594  000024  0029               	dw	ivt0x8_undefint shr (0+2)
  2595                           
  2596                           ; Vector 15 : SMT1PWA
  2597  000026  0029               	dw	ivt0x8_undefint shr (0+2)
  2598                           
  2599                           ; Vector 16 : DMA1SCNT
  2600  000028  0029               	dw	ivt0x8_undefint shr (0+2)
  2601                           
  2602                           ; Vector 17 : DMA1DCNT
  2603  00002A  0029               	dw	ivt0x8_undefint shr (0+2)
  2604                           
  2605                           ; Vector 18 : DMA1OR
  2606  00002C  0029               	dw	ivt0x8_undefint shr (0+2)
  2607                           
  2608                           ; Vector 19 : DMA1A
  2609  00002E  0029               	dw	ivt0x8_undefint shr (0+2)
  2610                           
  2611                           ; Vector 20 : SPI1RX
  2612  000030  0029               	dw	ivt0x8_undefint shr (0+2)
  2613                           
  2614                           ; Vector 21 : SPI1TX
  2615  000032  0029               	dw	ivt0x8_undefint shr (0+2)
  2616                           
  2617                           ; Vector 22 : SPI1
  2618  000034  0029               	dw	ivt0x8_undefint shr (0+2)
  2619                           
  2620                           ; Vector 23 : I2C1RX
  2621  000036  0029               	dw	ivt0x8_undefint shr (0+2)
  2622                           
  2623                           ; Vector 24 : I2C1TX
  2624  000038  0029               	dw	ivt0x8_undefint shr (0+2)
  2625                           
  2626                           ; Vector 25 : I2C1
  2627  00003A  0029               	dw	ivt0x8_undefint shr (0+2)
  2628                           
  2629                           ; Vector 26 : I2C1E
  2630  00003C  0029               	dw	ivt0x8_undefint shr (0+2)
  2631                           
  2632                           ; Vector 27 : U1RX
  2633  00003E  0029               	dw	ivt0x8_undefint shr (0+2)
  2634                           
  2635                           ; Vector 28 : U1TX
  2636  000040  0029               	dw	ivt0x8_undefint shr (0+2)
  2637                           
  2638                           ; Vector 29 : U1E
  2639  000042  0029               	dw	ivt0x8_undefint shr (0+2)
  2640                           
  2641                           ; Vector 30 : U1
  2642  000044  0029               	dw	ivt0x8_undefint shr (0+2)
  2643                           
  2644                           ; Vector 31 : TMR0
  2645  000046  0383               	dw	_App_Private_Cmd_Execute_Periodic_Task shr (0+2)
  2646                           
  2647                           ; Vector 32 : TMR1
  2648  000048  0029               	dw	ivt0x8_undefint shr (0+2)
  2649                           
  2650                           ; Vector 33 : TMR1G
  2651  00004A  0029               	dw	ivt0x8_undefint shr (0+2)
  2652                           
  2653                           ; Vector 34 : TMR2
  2654  00004C  0029               	dw	ivt0x8_undefint shr (0+2)
  2655                           
  2656                           ; Vector 35 : CCP1
  2657  00004E  0029               	dw	ivt0x8_undefint shr (0+2)
  2658                           
  2659                           ; Vector 36 : NCO1
  2660  000050  0029               	dw	ivt0x8_undefint shr (0+2)
  2661                           
  2662                           ; Vector 37 : CWG1
  2663  000052  0029               	dw	ivt0x8_undefint shr (0+2)
  2664                           
  2665                           ; Vector 38 : CLC1
  2666  000054  0029               	dw	ivt0x8_undefint shr (0+2)
  2667                           
  2668                           ; Vector 39 : INT1
  2669  000056  0029               	dw	ivt0x8_undefint shr (0+2)
  2670                           
  2671                           ; Vector 40 : RXB0IF
  2672  000058  0029               	dw	ivt0x8_undefint shr (0+2)
  2673                           
  2674                           ; Vector 41 : RXB1IF
  2675  00005A  0029               	dw	ivt0x8_undefint shr (0+2)
  2676                           
  2677                           ; Vector 42 : TXB0IF
  2678  00005C  0029               	dw	ivt0x8_undefint shr (0+2)
  2679                           
  2680                           ; Vector 43 : TXB1IF
  2681  00005E  0029               	dw	ivt0x8_undefint shr (0+2)
  2682                           
  2683                           ; Vector 44 : TXB2IF
  2684  000060  0029               	dw	ivt0x8_undefint shr (0+2)
  2685                           
  2686                           ; Vector 45 : ERRIF
  2687  000062  0029               	dw	ivt0x8_undefint shr (0+2)
  2688                           
  2689                           ; Vector 46 : WAKIF
  2690  000064  0029               	dw	ivt0x8_undefint shr (0+2)
  2691                           
  2692                           ; Vector 47 : IRXIF
  2693  000066  0029               	dw	ivt0x8_undefint shr (0+2)
  2694                           
  2695                           ; Vector 48 : CMP2
  2696  000068  0029               	dw	ivt0x8_undefint shr (0+2)
  2697                           
  2698                           ; Vector 49 : SMT2
  2699  00006A  0029               	dw	ivt0x8_undefint shr (0+2)
  2700                           
  2701                           ; Vector 50 : SMT2PRA
  2702  00006C  0029               	dw	ivt0x8_undefint shr (0+2)
  2703                           
  2704                           ; Vector 51 : SMT2PWA
  2705  00006E  0029               	dw	ivt0x8_undefint shr (0+2)
  2706                           
  2707                           ; Vector 52 : DMA2SCNT
  2708  000070  0029               	dw	ivt0x8_undefint shr (0+2)
  2709                           
  2710                           ; Vector 53 : DMA2DCNT
  2711  000072  0029               	dw	ivt0x8_undefint shr (0+2)
  2712                           
  2713                           ; Vector 54 : DMA2OR
  2714  000074  0029               	dw	ivt0x8_undefint shr (0+2)
  2715                           
  2716                           ; Vector 55 : DMA2A
  2717  000076  0029               	dw	ivt0x8_undefint shr (0+2)
  2718                           
  2719                           ; Vector 56 : I2C2RX
  2720  000078  0029               	dw	ivt0x8_undefint shr (0+2)
  2721                           
  2722                           ; Vector 57 : I2C2TX
  2723  00007A  0029               	dw	ivt0x8_undefint shr (0+2)
  2724                           
  2725                           ; Vector 58 : I2C2
  2726  00007C  0029               	dw	ivt0x8_undefint shr (0+2)
  2727                           
  2728                           ; Vector 59 : I2C2E
  2729  00007E  0029               	dw	ivt0x8_undefint shr (0+2)
  2730                           
  2731                           ; Vector 60 : U2RX
  2732  000080  0029               	dw	ivt0x8_undefint shr (0+2)
  2733                           
  2734                           ; Vector 61 : U2TX
  2735  000082  0029               	dw	ivt0x8_undefint shr (0+2)
  2736                           
  2737                           ; Vector 62 : U2E
  2738  000084  0029               	dw	ivt0x8_undefint shr (0+2)
  2739                           
  2740                           ; Vector 63 : U2
  2741  000086  0029               	dw	ivt0x8_undefint shr (0+2)
  2742                           
  2743                           ; Vector 64 : TMR3
  2744  000088  0029               	dw	ivt0x8_undefint shr (0+2)
  2745                           
  2746                           ; Vector 65 : TMR3G
  2747  00008A  0029               	dw	ivt0x8_undefint shr (0+2)
  2748                           
  2749                           ; Vector 66 : TMR4
  2750  00008C  0029               	dw	ivt0x8_undefint shr (0+2)
  2751                           
  2752                           ; Vector 67 : CCP2
  2753  00008E  0029               	dw	ivt0x8_undefint shr (0+2)
  2754                           
  2755                           ; Vector 68 : CWG2
  2756  000090  0029               	dw	ivt0x8_undefint shr (0+2)
  2757                           
  2758                           ; Vector 69 : CLC2
  2759  000092  0029               	dw	ivt0x8_undefint shr (0+2)
  2760                           
  2761                           ; Vector 70 : INT2
  2762  000094  0029               	dw	ivt0x8_undefint shr (0+2)
  2763                           
  2764                           ; Vector 71 : TMR5
  2765  000096  0029               	dw	ivt0x8_undefint shr (0+2)
  2766                           
  2767                           ; Vector 72 : TMR5G
  2768  000098  0029               	dw	ivt0x8_undefint shr (0+2)
  2769                           
  2770                           ; Vector 73 : TMR6
  2771  00009A  0029               	dw	ivt0x8_undefint shr (0+2)
  2772                           
  2773                           ; Vector 74 : CCP3
  2774  00009C  0029               	dw	ivt0x8_undefint shr (0+2)
  2775                           
  2776                           ; Vector 75 : CWG3
  2777  00009E  0029               	dw	ivt0x8_undefint shr (0+2)
  2778                           
  2779                           ; Vector 76 : CLC3
  2780  0000A0  0029               	dw	ivt0x8_undefint shr (0+2)
  2781                           
  2782                           ; Vector 77 : CCP4
  2783  0000A2  0029               	dw	ivt0x8_undefint shr (0+2)
  2784                           
  2785                           ; Vector 78 : CLC4
  2786  0000A4  0029               	dw	ivt0x8_undefint shr (0+2)
  2787  0000A6                     ivt0x8_undefint:
  2788                           	callstack 0
  2789  0000A6  00FF               	reset	
  2790  0000                     
  2791                           	psect	rparam
  2792  0000                     
  2793                           	psect	idloc
  2794                           
  2795                           ;Config register IDLOC0 @ 0x200000
  2796                           ;	unspecified, using default values
  2797  200000                     	org	2097152
  2798  200000  0FFF               	dw	4095
  2799                           
  2800                           ;Config register IDLOC1 @ 0x200002
  2801                           ;	unspecified, using default values
  2802  200002                     	org	2097154
  2803  200002  0FFF               	dw	4095
  2804                           
  2805                           ;Config register IDLOC2 @ 0x200004
  2806                           ;	unspecified, using default values
  2807  200004                     	org	2097156
  2808  200004  0FFF               	dw	4095
  2809                           
  2810                           ;Config register IDLOC3 @ 0x200006
  2811                           ;	unspecified, using default values
  2812  200006                     	org	2097158
  2813  200006  0FFF               	dw	4095
  2814                           
  2815                           ;Config register IDLOC4 @ 0x200008
  2816                           ;	unspecified, using default values
  2817  200008                     	org	2097160
  2818  200008  0FFF               	dw	4095
  2819                           
  2820                           ;Config register IDLOC5 @ 0x20000A
  2821                           ;	unspecified, using default values
  2822  20000A                     	org	2097162
  2823  20000A  0FFF               	dw	4095
  2824                           
  2825                           ;Config register IDLOC6 @ 0x20000C
  2826                           ;	unspecified, using default values
  2827  20000C                     	org	2097164
  2828  20000C  0FFF               	dw	4095
  2829                           
  2830                           ;Config register IDLOC7 @ 0x20000E
  2831                           ;	unspecified, using default values
  2832  20000E                     	org	2097166
  2833  20000E  0FFF               	dw	4095
  2834                           
  2835                           	psect	config
  2836                           
  2837                           ;Config register CONFIG1L @ 0x300000
  2838                           ;	External Oscillator Selection
  2839                           ;	FEXTOSC = 0x0, user specified literal
  2840                           ;	Reset Oscillator Selection
  2841                           ;	RSTOSC = 0x0, user specified literal
  2842  300000                     	org	3145728
  2843  300000  88                 	db	136
  2844                           
  2845                           ;Config register CONFIG1H @ 0x300001
  2846                           ;	Clock out Enable bit
  2847                           ;	CLKOUTEN = OFF, CLKOUT function is disabled
  2848                           ;	PRLOCKED One-Way Set Enable bit
  2849                           ;	PR1WAY = OFF, PRLOCK bit can be set and cleared repeatedly
  2850                           ;	Clock Switch Enable bit
  2851                           ;	CSWEN = OFF, The NOSC and NDIV bits cannot be changed by user software
  2852                           ;	Fail-Safe Clock Monitor Enable bit
  2853                           ;	FCMEN = OFF, Fail-Safe Clock Monitor disabled
  2854  300001                     	org	3145729
  2855  300001  D5                 	db	213
  2856                           
  2857                           ;Config register CONFIG2L @ 0x300002
  2858                           ;	MCLR Enable bit
  2859                           ;	MCLRE = EXTMCLR, If LVP = 0, MCLR pin is MCLR; If LVP = 1, RE3 pin function is MCLR
  2860                           ;	Power-up timer selection bits
  2861                           ;	PWRTS = PWRT_64, PWRT set at 64ms
  2862                           ;	Multi-vector enable bit
  2863                           ;	MVECEN = ON, Multi-vector enabled, Vector table used for interrupts
  2864                           ;	IVTLOCK bit One-way set enable bit
  2865                           ;	IVT1WAY = ON, IVTLOCK bit can be cleared and set only once
  2866                           ;	Low Power BOR Enable bit
  2867                           ;	LPBOREN = OFF, ULPBOR disabled
  2868                           ;	Brown-out Reset Enable bits
  2869                           ;	BOREN = OFF, Brown-out Reset disabled
  2870  300002                     	org	3145730
  2871  300002  3D                 	db	61
  2872                           
  2873                           ;Config register CONFIG2H @ 0x300003
  2874                           ;	Brown-out Reset Voltage Selection bits
  2875                           ;	BORV = VBOR_2P45, Brown-out Reset Voltage (VBOR) set to 2.45V
  2876                           ;	ZCD Disable bit
  2877                           ;	ZCD = OFF, ZCD disabled. ZCD can be enabled by setting the ZCDSEN bit of ZCDCON
  2878                           ;	PPSLOCK bit One-Way Set Enable bit
  2879                           ;	PPS1WAY = OFF, PPSLOCK bit can be set and cleared repeatedly (subject to the unlock se
      +                          quence)
  2880                           ;	Stack Full/Underflow Reset Enable bit
  2881                           ;	STVREN = ON, Stack full/underflow will cause Reset
  2882                           ;	Debugger Enable bit
  2883                           ;	DEBUG = OFF, Background debugger disabled
  2884                           ;	Extended Instruction Set Enable bit
  2885                           ;	XINST = OFF, Extended Instruction Set and Indexed Addressing Mode disabled
  2886  300003                     	org	3145731
  2887  300003  F7                 	db	247
  2888                           
  2889                           ;Config register CONFIG3L @ 0x300004
  2890                           ;	WDT Period selection bits
  2891                           ;	WDTCPS = WDTCPS_5, Divider ratio 1:1024
  2892                           ;	WDT operating mode
  2893                           ;	WDTE = OFF, WDT Disabled; SWDTEN is ignored
  2894  300004                     	org	3145732
  2895  300004  85                 	db	133
  2896                           
  2897                           ;Config register CONFIG3H @ 0x300005
  2898                           ;	WDT Window Select bits
  2899                           ;	WDTCWS = WDTCWS_7, window always open (100%); software control; keyed access not requi
      +                          red
  2900                           ;	WDT input clock selector
  2901                           ;	WDTCCS = MFINTOSC, WDT reference clock is the 32kHz MFINTOSC output
  2902  300005                     	org	3145733
  2903  300005  CF                 	db	207
  2904                           
  2905                           ;Config register CONFIG4L @ 0x300006
  2906                           ;	Boot Block Size selection bits
  2907                           ;	BBSIZE = BBSIZE_512, Boot Block size is 512 words
  2908                           ;	Boot Block enable bit
  2909                           ;	BBEN = OFF, Boot block disabled
  2910                           ;	Storage Area Flash enable bit
  2911                           ;	SAFEN = OFF, SAF disabled
  2912                           ;	Application Block write protection bit
  2913                           ;	WRTAPP = ON, Application Block write protected
  2914  300006                     	org	3145734
  2915  300006  7F                 	db	127
  2916                           
  2917                           ;Config register CONFIG4H @ 0x300007
  2918                           ;	Configuration Register Write Protection bit
  2919                           ;	WRTB = OFF, Configuration registers (300000-30000Bh) not write-protected
  2920                           ;	Boot Block Write Protection bit
  2921                           ;	WRTC = ON, Boot Block (000000-0007FFh) write-protected
  2922                           ;	Data EEPROM Write Protection bit
  2923                           ;	WRTD = ON, Data EEPROM write-protected
  2924                           ;	SAF Write protection bit
  2925                           ;	WRTSAF = OFF, SAF not Write Protected
  2926                           ;	Low Voltage Programming Enable bit
  2927                           ;	LVP = ON, Low voltage programming enabled. MCLR/VPP pin function is MCLR. MCLRE config
      +                          uration bit is ignored
  2928  300007                     	org	3145735
  2929  300007  F9                 	db	249
  2930                           
  2931                           ;Config register CONFIG5L @ 0x300008
  2932                           ;	PFM and Data EEPROM Code Protection bit
  2933                           ;	CP = ON, PFM and Data EEPROM code protection enabled
  2934  300008                     	org	3145736
  2935  300008  FE                 	db	254
  2936                           
  2937                           ;Config register CONFIG5H @ 0x300009
  2938                           ;	unspecified, using default values
  2939  300009                     	org	3145737
  2940  300009  FF                 	db	255
  2941                           tosu	equ	0x3FFF
  2942                           tosh	equ	0x3FFE
  2943                           tosl	equ	0x3FFD
  2944                           stkptr	equ	0x3FFC
  2945                           pclatu	equ	0x3FFB
  2946                           pclath	equ	0x3FFA
  2947                           pcl	equ	0x3FF9
  2948                           tblptru	equ	0x3FF8
  2949                           tblptrh	equ	0x3FF7
  2950                           tblptrl	equ	0x3FF6
  2951                           tablat	equ	0x3FF5
  2952                           prodh	equ	0x3FF4
  2953                           prodl	equ	0x3FF3
  2954                           indf0	equ	0x3FEF
  2955                           postinc0	equ	0x3FEE
  2956                           postdec0	equ	0x3FED
  2957                           preinc0	equ	0x3FEC
  2958                           plusw0	equ	0x3FEB
  2959                           fsr0h	equ	0x3FEA
  2960                           fsr0l	equ	0x3FE9
  2961                           wreg	equ	0x3FE8
  2962                           indf1	equ	0x3FE7
  2963                           postinc1	equ	0x3FE6
  2964                           postdec1	equ	0x3FE5
  2965                           preinc1	equ	0x3FE4
  2966                           plusw1	equ	0x3FE3
  2967                           fsr1h	equ	0x3FE2
  2968                           fsr1l	equ	0x3FE1
  2969                           bsr	equ	0x3FE0
  2970                           indf2	equ	0x3FDF
  2971                           postinc2	equ	0x3FDE
  2972                           postdec2	equ	0x3FDD
  2973                           preinc2	equ	0x3FDC
  2974                           plusw2	equ	0x3FDB
  2975                           fsr2h	equ	0x3FDA
  2976                           fsr2l	equ	0x3FD9
  2977                           status	equ	0x3FD8

Data Sizes:
    Strings     0
    Constant    0
    Data        0
    BSS         6
    Persistent  4
    Stack       0

Auto Spaces:
    Space          Size  Autos    Used
    COMRAM           95     72      82
    BANK0           160      0       0
    BANK1           256      0       0
    BANK2           256      0       0
    BANK3           256      0       0
    BANK4           256      0       0
    BANK5           256      0       0
    BANK6           256      0       0
    BANK7           256      0       0
    BANK8           256      0       0
    BANK9           256      0       0
    BANK10          256      0       0
    BANK11          256      0       0
    BANK12          256      0       0
    BANK13          256      0       0
    BANK14          256      0       0
    BANK15          256      0       0

Pointer List with Targets:

    None.

Critical Paths under _main in COMRAM

    _main->_Drv_Adc_Read_Temp_Ext
    _Drv_Adc_Read_Temp_Ext->___fltol
    ___fltol->___fldiv
    ___fltol->___flmul
    ___flmul->___xxtofl
    ___fldiv->___xxtofl

Critical Paths under _App_Private_Cmd_Execute_Periodic_Task in COMRAM

    None.

Critical Paths under _main in BANK0

    None.

Critical Paths under _App_Private_Cmd_Execute_Periodic_Task in BANK0

    None.

Critical Paths under _main in BANK1

    None.

Critical Paths under _App_Private_Cmd_Execute_Periodic_Task in BANK1

    None.

Critical Paths under _main in BANK2

    None.

Critical Paths under _App_Private_Cmd_Execute_Periodic_Task in BANK2

    None.

Critical Paths under _main in BANK3

    None.

Critical Paths under _App_Private_Cmd_Execute_Periodic_Task in BANK3

    None.

Critical Paths under _main in BANK4

    None.

Critical Paths under _App_Private_Cmd_Execute_Periodic_Task in BANK4

    None.

Critical Paths under _main in BANK5

    None.

Critical Paths under _App_Private_Cmd_Execute_Periodic_Task in BANK5

    None.

Critical Paths under _main in BANK6

    None.

Critical Paths under _App_Private_Cmd_Execute_Periodic_Task in BANK6

    None.

Critical Paths under _main in BANK7

    None.

Critical Paths under _App_Private_Cmd_Execute_Periodic_Task in BANK7

    None.

Critical Paths under _main in BANK8

    None.

Critical Paths under _App_Private_Cmd_Execute_Periodic_Task in BANK8

    None.

Critical Paths under _main in BANK9

    None.

Critical Paths under _App_Private_Cmd_Execute_Periodic_Task in BANK9

    None.

Critical Paths under _main in BANK10

    None.

Critical Paths under _App_Private_Cmd_Execute_Periodic_Task in BANK10

    None.

Critical Paths under _main in BANK11

    None.

Critical Paths under _App_Private_Cmd_Execute_Periodic_Task in BANK11

    None.

Critical Paths under _main in BANK12

    None.

Critical Paths under _App_Private_Cmd_Execute_Periodic_Task in BANK12

    None.

Critical Paths under _main in BANK13

    None.

Critical Paths under _App_Private_Cmd_Execute_Periodic_Task in BANK13

    None.

Critical Paths under _main in BANK14

    None.

Critical Paths under _App_Private_Cmd_Execute_Periodic_Task in BANK14

    None.

Critical Paths under _main in BANK15

    None.

Critical Paths under _App_Private_Cmd_Execute_Periodic_Task in BANK15

    None.

Call Graph Tables:

 ---------------------------------------------------------------------------------
 (Depth) Function   	        Calls       Base Space   Used Autos Params    Refs
 ---------------------------------------------------------------------------------
 (0) _main                                                 0     0      0    4212
              _Drv_Adc_Read_Temp_Ext
                        _InitSysteme
                 _dtmf_InitInterrupt
 ---------------------------------------------------------------------------------
 (1) _dtmf_InitInterrupt                                   0     0      0       0
 ---------------------------------------------------------------------------------
 (1) _InitSysteme                                          0     0      0       0
                  _Drv_Adc_Configure
                    _TMR0_Initialize
                     _dtmf_Configure
 ---------------------------------------------------------------------------------
 (2) _dtmf_Configure                                       0     0      0       0
 ---------------------------------------------------------------------------------
 (2) _TMR0_Initialize                                      0     0      0       0
 ---------------------------------------------------------------------------------
 (2) _Drv_Adc_Configure                                    0     0      0       0
 ---------------------------------------------------------------------------------
 (1) _Drv_Adc_Read_Temp_Ext                               23    19      4    4212
                                             49 COMRAM    23    19      4
                            ___fldiv
                            ___flmul
                            ___fltol
                           ___xxtofl
 ---------------------------------------------------------------------------------
 (2) ___xxtofl                                            14    10      4     474
                                              0 COMRAM    14    10      4
 ---------------------------------------------------------------------------------
 (2) ___fltol                                             10     6      4     381
                                             39 COMRAM    10     6      4
                            ___fldiv (ARG)
                            ___flmul (ARG)
                           ___xxtofl (ARG)
 ---------------------------------------------------------------------------------
 (2) ___flmul                                             25    17      8    1744
                                             14 COMRAM    25    17      8
                           ___xxtofl (ARG)
 ---------------------------------------------------------------------------------
 (2) ___fldiv                                             25    17      8    1399
                                             14 COMRAM    25    17      8
                           ___xxtofl (ARG)
 ---------------------------------------------------------------------------------
 Estimated maximum stack depth 2
 ---------------------------------------------------------------------------------
 (Depth) Function   	        Calls       Base Space   Used Autos Params    Refs
 ---------------------------------------------------------------------------------
 (3) _App_Private_Cmd_Execute_Periodic_Task                0     0      0       0
 ---------------------------------------------------------------------------------
 Estimated maximum stack depth 3
 ---------------------------------------------------------------------------------

 Call Graph Graphs:

 _main (ROOT)
   _Drv_Adc_Read_Temp_Ext
     ___fldiv
       ___xxtofl (ARG)
     ___flmul
       ___xxtofl (ARG)
     ___fltol
       ___fldiv (ARG)
       ___flmul (ARG)
       ___xxtofl (ARG)
     ___xxtofl
   _InitSysteme
     _Drv_Adc_Configure
     _TMR0_Initialize
     _dtmf_Configure
   _dtmf_InitInterrupt

 _App_Private_Cmd_Execute_Periodic_Task (ROOT)

 Address spaces:
Name               Size   Autos  Total    Cost      Usage
BIGRAM             FFF      0       0      37        0.0%
EEDATA             400      0       0       0        0.0%
BITBANK15          100      0       0      35        0.0%
BANK15             100      0       0      36        0.0%
BITBANK14          100      0       0      33        0.0%
BANK14             100      0       0      34        0.0%
BITBANK13          100      0       0      31        0.0%
BANK13             100      0       0      32        0.0%
BITBANK12          100      0       0      29        0.0%
BANK12             100      0       0      30        0.0%
BITBANK11          100      0       0      27        0.0%
BANK11             100      0       0      28        0.0%
BITBANK10          100      0       0      25        0.0%
BANK10             100      0       0      26        0.0%
BITBANK9           100      0       0      23        0.0%
BANK9              100      0       0      24        0.0%
BITBANK8           100      0       0      21        0.0%
BANK8              100      0       0      22        0.0%
BITBANK7           100      0       0      19        0.0%
BANK7              100      0       0      20        0.0%
BITBANK6           100      0       0      17        0.0%
BANK6              100      0       0      18        0.0%
BITBANK5           100      0       0      15        0.0%
BANK5              100      0       0      16        0.0%
BITBANK4           100      0       0      13        0.0%
BANK4              100      0       0      14        0.0%
BITBANK3           100      0       0      11        0.0%
BANK3              100      0       0      12        0.0%
BITBANK2           100      0       0       9        0.0%
BANK2              100      0       0      10        0.0%
BITBANK1           100      0       0       7        0.0%
BANK1              100      0       0       8        0.0%
BITBANK0            A0      0       0       4        0.0%
BANK0               A0      0       0       5        0.0%
BITCOMRAM           5F      0       0       0        0.0%
COMRAM              5F     48      52       1       86.3%
BITSFR_9             0      0       0     200        0.0%
SFR_9                0      0       0     200        0.0%
BITSFR_8             0      0       0     200        0.0%
SFR_8                0      0       0     200        0.0%
BITSFR_7             0      0       0     200        0.0%
SFR_7                0      0       0     200        0.0%
BITSFR_6             0      0       0     200        0.0%
SFR_6                0      0       0     200        0.0%
BITSFR_5             0      0       0     200        0.0%
SFR_5                0      0       0     200        0.0%
BITSFR_4             0      0       0     200        0.0%
SFR_4                0      0       0     200        0.0%
BITSFR_3             0      0       0     200        0.0%
SFR_3                0      0       0     200        0.0%
BITSFR_2             0      0       0     200        0.0%
SFR_2                0      0       0     200        0.0%
BITSFR_1             0      0       0     200        0.0%
SFR_1                0      0       0     200        0.0%
BITSFR               0      0       0     200        0.0%
SFR                  0      0       0     200        0.0%
STACK                0      0       0       2        0.0%
NULL                 0      0       0       0        0.0%
ABS                  0      0      52       6        0.0%
DATA                 0      0      52       3        0.0%
CODE                 0      0       0       0        0.0%


Microchip Technology PIC18 Macro Assembler V2.32 build 20210201212658 
Symbol Table                                                                                   Sat Nov 04 14:08:30 2023

                                  ___fldiv@aexp 0027                                    ___fldiv@bexp 0026  
                                  ___fldiv@sign 001F                                              l60 0A92  
                                            l61 0AFA                                              l64 0BEA  
                                            l57 0D64                                             l101 0E32  
                                           l140 0DAA                                             l151 0E3C  
                                           l154 0E3E                                             l454 0CF0  
                                           l812 08EA                                             l741 06F2  
                                           l750 0738                                             l830 0CF2  
                                           l815 0A46                                             l752 07B0  
                                           l744 06B6                                             l840 0D16  
                                           l832 0CF8                                             l753 079E  
                                           l826 09DE                                             l842 0D18  
                                           l834 0D00                                             l850 0D66  
                                           l739 0892                                             l771 0170  
                                           l819 0982                                             l780 0402  
                                           l844 0D1E                                             l836 0D0A  
                                           l860 0D7E                                             l852 0D6C  
                                           l781 03F0                                             l846 0D54  
                                           l838 0D14                                             l870 0DA6  
                                           l862 0D80                                             l854 0D78  
                                           l775 04F8                                             l848 0D62  
                                           l872 0DA8                                             l864 0D96  
                                           l856 0D7A                                             l778 038A  
                                           l866 0DA0                                             l858 0D7C  
                                           l874 0E34                                             l788 04BA  
                                           l868 0DA4                                             u700 05DC  
                                           u701 05D8                                             u710 061C  
                                           u711 0618                                             u800 0796  
                                           u720 0692                                             u640 0514  
                                           u801 0792                                             u721 068E  
                                           u641 0510                                             u810 07AC  
                                           u730 06B4                                             u650 0526  
                                           u811 07A8                                             u731 06B0  
                                           u651 0522                                             u820 07C0  
                                           u740 06DE                                             u660 0536  
                                           u900 0128                                             u821 07BC  
                                           u741 06DA                                             u661 0532  
                                           u901 0124                                             u830 07DA  
                                           u750 0702                                             u670 057A  
                                           u910 013A                                             u831 07D6  
                                           u751 06FE                                             u671 0576  
                                           u911 0136                                             u840 0822  
                                           u760 0718                                             u680 058C  
                                           u920 014A                                             u841 081E  
                                           u761 0714                                             u681 0588  
                                           u921 0146                                             u850 0852  
                                           u770 0736                                             u690 059C  
                                           u930 0180                                             u851 084E  
                                           u771 0732                                             u691 0598  
                                           u931 017C                                             u860 0880  
                                           u780 0756                                             u940 0190  
                                           u861 087C                                             u781 0752  
                                           u941 018C                                             u790 0768  
                                           u950 032E                                             u870 00C6  
                                           u791 0764                                             u871 00C2  
                                           u960 0388                                             u880 00D8  
                                           u961 0384                                             u881 00D4  
                                           u970 03A8                                             u890 00E8  
                                           u971 03A4                                             u955 0324  
                                           u891 00E4                                             u980 03BA  
                                           u981 03B6                                             u990 03E8  
                                           u991 03E4                                             wreg 003FE8  
                                  ___flmul@aexp 0020                                    ___flmul@bexp 0021  
                                  ___flmul@sign 001B                                    ___flmul@temp 0026  
                                  ___flmul@prod 0022                                    ___fltol@exp1 0031  
                                          l1300 0526                                            l1310 0560  
                                          l1302 0536                                            l1400 07CC  
                                          l1320 058C                                            l1312 0566  
                                          l1304 0546                                            l1410 0838  
                                          l1402 07DA                                            l1330 05C6  
                                          l1322 059C                                            l1314 056C  
                                          l1306 0548                                            l1420 0886  
                                          l1412 0852                                            l1404 0804  
                                          l1332 05DC                                            l1324 05AC  
                                          l1316 057A                                            l1308 0550  
                                          l1500 02B4                                            l1422 0888  
                                          l1414 086E                                            l1406 0808  
                                          l1350 0630                                            l1334 05EC  
                                          l1342 060C                                            l1326 05AE  
                                          l1318 057C                                            l1510 0352  
                                          l1502 02C4                                            l1430 00AC  
                                          l1416 0872                                            l1408 0822  
                                          l1360 0682                                            l1352 064A  
                                          l1344 061C                                            l1336 05F4  
                                          l1328 05B6                                            l1520 03A8  
                                          l1512 0370                                            l1504 02E4  
                                          l1440 00E8                                            l1432 00B8  
                                          l1600 0CE0                                            l1264 0E22  
                                          l1418 0880                                            l1370 06DE  
                                          l1362 0692                                            l1354 065A  
                                          l1346 061C                                            l1338 05F8  
                                          l1530 0412                                            l1522 03AC  
                                          l1514 037A                                            l1506 030E  
                                          l1450 011A                                            l1442 00F8  
                                          l1434 00C6                                            l1610 08FA  
                                          l1266 0E26                                            l1380 071E  
                                          l1372 06E0                                            l1364 06A6  
                                          l1356 066A                                            l1292 04FA  
                                          l1540 0474                                            l1532 041E  
                                          l1524 03BA                                            l1516 0388  
                                          l1508 0344                                            l1460 015A  
                                          l1452 0128                                            l1444 00FE  
                                          l1436 00C8                                            l1620 0938  
                                          l1612 0910                                            l1604 0896  
                                          l1268 0E2E                                            l1390 075A  
                                          l1382 0728                                            l1374 06F0  
                                          l1366 06B4                                            l1358 067A  
                                          l1294 0506                                            l1550 04DC  
                                          l1542 0488                                            l1534 042C  
                                          l1526 03E8                                            l1518 039A  
                                          l1470 01A4                                            l1462 0160  
                                          l1454 012A                                            l1446 010E  
                                          l1438 00D8                                            l1630 09C0  
                                          l1622 096A                                            l1606 08A6  
                                          l1392 0768                                            l1384 0736  
                                          l1376 0702                                            l1368 06C0  
                                          l1296 0514                                            l1552 04DE  
                                          l1544 04A2                                            l1536 0456  
                                          l1480 0200                                            l1472 01B4  
                                          l1464 0180                                            l1456 013A  
                                          l1448 0114                                            l1560 0BEC  
                                          l1640 0A16                                            l1632 09CE  
                                          l1624 096C                                            l1616 0924  
                                          l1608 08B4                                            l1394 0796  
                                          l1378 0718                                            l1386 0748  
                                          l1298 0516                                            l1546 04BE  
                                          l1554 04E4                                            l1538 045A  
                                          l1490 0246                                            l1482 020C  
                                          l1474 01BE                                            l1466 0190  
                                          l1458 014A                                            l1570 0C42  
                                          l1562 0C02                                            l1642 0A26  
                                          l1634 09EC                                            l1626 0978  
                                          l1618 092C                                            l1650 0A48  
                                          l1388 0756                                            l1556 04E8  
                                          l1548 04CE                                            l1492 0256  
                                          l1484 0218                                            l1476 01D8  
                                          l1572 0C52                                            l1644 0A34  
                                          l1636 09EE                                            l1628 09B4  
                                          l1652 0A80                                            l1398 07C0  
                                          l1494 0266                                            l1486 0226  
                                          l1478 01E4                                            l1582 0C7C  
                                          l1574 0C56                                            l1566 0C16  
                                          l1646 0A36                                            l1638 09F2  
                                          l1670 0B0A                                            l1662 0A9E  
                                          l1654 0A82                                            l1496 0284  
                                          l1488 0236                                            l1592 0CA4  
                                          l1584 0C86                                            l1576 0C64  
                                          l1568 0C40                                            l1672 0B68  
                                          l1664 0AC6                                            l1656 0A8C  
                                          l1680 0DAC                                            l1498 0294  
                                          l1594 0CB0                                            l1586 0C90  
                                          l1674 0BCA                                            l1666 0AD0  
                                          l1682 0DB0                                            l1596 0CC0  
                                          l1676 0BDA                                            l1668 0AEA  
                                          l1684 0DC4                                            l1598 0CD0  
                                          l1686 0DD2                                            u1000 03FE  
                                          u1001 03FA                                            u1010 0412  
                                          u1011 040E                                            u1020 042C  
                                          u1100 0CA0                                            u1021 0428  
                                          u1101 0C9C                                            u1030 0474  
                                          u1110 0CC0                                            u1031 0470  
                                          u1111 0CBC                                            u1040 04A2  
                                          u1120 0CD0                                            u1200 09EC  
                                          u1041 049E                                            u1121 0CCC  
                                          u1201 09E8                                            u1050 04DC  
                                          u1210 0A26                                            u1130 08A6  
                                          u1051 04D8                                            u1211 0A22  
                                          u1131 08A2                                            u1060 0C02  
                                          u1220 0A34                                            u1140 08B4  
                                          u1061 0BFE                                            u1221 0A30  
                                          u1141 08B0                                            u1070 0C36  
                                          u1150 0910                                            u1230 0AFA  
                                          u1151 090C                                            u1231 0AF6  
                                          u1080 0C64                                            u1160 0966  
                                          u1240 0B0A                                            u1081 0C60  
                                          u1161 0962                                            u1241 0B06  
                                          u1090 0C78                                            u1170 09B0  
                                          u1250 0DD2                                            u1091 0C74  
                                          u1075 0C2C                                            u1171 09AC  
                                          u1251 0DCE                                            u1180 09CE  
                                          u1181 09CA                                            u1190 09DE  
                                          u1191 09DA                                            _main 0DAC  
                                          _test 004D                                            prodh 003FF4  
                                          prodl 003FF3                                            start 00A8  
                               ___fldiv@new_exp 0020                                    ___param_bank 000000  
                       __end_of_TMR0_Initialize 0DAC                                   ??_InitSysteme 0001  
                                 ___fltol@sign1 0030                                           _ADACT 003EFE  
                                         _ADCAP 003EF5                                           ?_main 0001  
                                         _ADCNT 003EEB                                           _ADPCH 003EF1  
                               __end_of___fldiv 0894                                           _ADRPT 003EEC  
                               __end_of___flmul 04FA                                 __end_of___fltol 0CF2  
                                         i2l146 0E20                                  _dtmf_Configure 0E34  
                                         _TMR0H 003FB7                                           _TMR0L 003FB6  
                             _Drv_Adc_Configure 0CF2                              ?_Drv_Adc_Configure 0001  
                                         status 003FD8                             ??_Drv_Adc_Configure 0001  
                               __initialization 0DEE                                    __end_of_main 0DEE  
                   __size_of_dtmf_InitInterrupt 0002                          __end_of_dtmf_Configure 0E3E  
                                        ??_main 0049                       __end_of_Drv_Adc_Configure 0D66  
                                 __activetblptr 000000                             __end_of_InitSysteme 0E34  
                                        _ADLTHH 003EDF                                          _ADLTHL 003EDE  
                                        _ADRESH 003EF0                                          _ADRESL 003EEF  
                                        _ADUTHH 003EE1                                          _ADUTHL 003EE0  
                                        i2l1290 0E1E                                          i2l1286 0E0C  
                                        i2l1288 0E1C                                __end_of___xxtofl 0A48  
                                     ??___fldiv 0017                                       ??___flmul 0017  
                                     ??___fltol 002C                                ?_TMR0_Initialize 0001  
                                        isa$std 000001                                 ?_dtmf_Configure 0001  
 __end_of_App_Private_Cmd_Execute_Periodic_Task 0E22  __size_of_App_Private_Cmd_Execute_Periodic_Task 0016  
       ??_App_Private_Cmd_Execute_Periodic_Task 0001          ?_App_Private_Cmd_Execute_Periodic_Task 0001  
         _App_Private_Cmd_Execute_Periodic_Task 0E0C                                    ___xxtofl@arg 000B  
                                  ___xxtofl@exp 000A                                    ___xxtofl@val 0001  
                                    __accesstop 0060                         __end_of__initialization 0E06  
                       ??_Drv_Adc_Read_Temp_Ext 0036                                   ___rparam_used 000001  
                                    ___fltol@f1 0028                                  __pcstackCOMRAM 0001  
                                ivt0x8_undefint 00A6                                     _InitSysteme 0E22  
                    __size_of_Drv_Adc_Configure 0074                                      __pnvCOMRAM 004F  
                                       IVTBASEH 003FD6                                         IVTBASEL 003FD5  
                                       IVTBASEU 003FD7                                         _ADFLTRH 003EE7  
                                       _ADSTPTH 003EE5                                         _ADSTPTL 003EE4  
                                     ?___xxtofl 0001                                         i2u63_40 0E1C  
                                       i2u63_41 0E18                                       _ADCLKbits 003EFF  
                                     _ADREFbits 003EFD                                         __Hparam 0000  
                                       __Lparam 0000                                         ___fldiv 04FA  
                                       ___flmul 00AC                                         ___fltol 0BEC  
                                   _Temperature 004F                                         __pcinit 0DEE  
                                       __ramtop 1000                                         __ptext0 0DAC  
                                       __ptext1 0E3E                                         __ptext2 0E22  
                                       __ptext3 0E34                                         __ptext4 0D66  
                                       __ptext5 0CF2                                         __ptext6 0A48  
                                       __ptext7 0894                                         __ptext8 0BEC  
                                       __ptext9 00AC                                      ??___xxtofl 0005  
                          end_of_initialization 0E06                      __end_of_dtmf_InitInterrupt 0E40  
                              ??_dtmf_Configure 0001                                       _PORTBbits 003FCB  
                                 ___xxtofl@sign 0009                                       _TRISAbits 003FC2  
                                     _TRISBbits 003FC3                                     ___fldiv@grs 0022  
                                   ___fldiv@rem 001B                                     ___flmul@grs 001C  
                __size_of_Drv_Adc_Read_Temp_Ext 01A4                   __end_of_Drv_Adc_Read_Temp_Ext 0BEC  
                                  ?_InitSysteme 0001                             start_initialization 0DEE  
                      __size_of_TMR0_Initialize 0046                                      ivt0x8_base 0008  
                                     ___fldiv@a 0013                                       ___fldiv@b 000F  
                                     ___flmul@a 0013                                       ___flmul@b 000F  
                                   __pbssCOMRAM 0049                               __size_of___xxtofl 01B4  
                                      ?___fldiv 000F                                        ?___flmul 000F  
                                      ?___fltol 0028                                        _ADCPbits 003ED7  
                                   _ui8Compteur 004E                               ??_TMR0_Initialize 0001  
                                      _IPR3bits 003983                                        _PIE3bits 003993  
                                      _IVTBASEH 003FD6                                        _IVTBASEL 003FD5  
                                      _IVTBASEU 003FD7                                        _PIR3bits 0039A3  
                Drv_Adc_Read_Temp_Ext@l_counter 0044                                      _ADACQHbits 003EF4  
                                    _ADACQLbits 003EF3                                       _test_temp 0049  
                                    _ADCON0bits 003EF8                                      _ADCON1bits 003EF9  
                                    _ADCON2bits 003EFA                                      _ADCON3bits 003EFB  
                          __size_of_InitSysteme 0012                              _dtmf_InitInterrupt 0E3E  
                                   _INTCON0bits 003FD2                             ?_dtmf_InitInterrupt 0001  
                                    _ADPREHbits 003EF7                                      _ADPRELbits 003EF6  
                                      __Hrparam 0000                                        __Lrparam 0000  
                          ??_dtmf_InitInterrupt 0001                                __size_of___fldiv 039A  
                              __size_of___flmul 044E                                __size_of___fltol 0106  
                                    _ANSELAbits 003A40                                        ___xxtofl 0894  
                                    _T0CON0bits 003FB8                                      _T0CON1bits 003FB9  
                                      __pivt0x8 0008                                        __ptext10 04FA  
                                      __ptext11 0E0C                                   __size_of_main 0042  
                                      isa$xinst 000000                           _Drv_Adc_Read_Temp_Ext 0A48  
                 Drv_Adc_Read_Temp_Ext@l_temp_h 003A                   Drv_Adc_Read_Temp_Ext@l_temp_l 003E  
                 Drv_Adc_Read_Temp_Ext@l_result 0045                Drv_Adc_Read_Temp_Ext@l_adc_res_h 0042  
              Drv_Adc_Read_Temp_Ext@l_adc_res_l 0043                         __size_of_dtmf_Configure 000A  
                                      intlevel2 0000                                 _TMR0_Initialize 0D66  
                        ?_Drv_Adc_Read_Temp_Ext 0032  
